---
triple:          'arm64-apple-darwin'
binary-path:     lex.yy
relocations:
  - { offsetInCU: 0x40, offset: 0x40, size: 0x8, addend: 0x0, symName: _yyleng, symObjAddr: 0x81FC8, symBinAddr: 0x10001C008, symSize: 0x0 }
  - { offsetInCU: 0x7E, offset: 0x7E, size: 0x8, addend: 0x0, symName: _yyin, symObjAddr: 0x81FD0, symBinAddr: 0x10001C010, symSize: 0x0 }
  - { offsetInCU: 0x2A0, offset: 0x2A0, size: 0x8, addend: 0x0, symName: _yyout, symObjAddr: 0x81FD8, symBinAddr: 0x10001C018, symSize: 0x0 }
  - { offsetInCU: 0x2B6, offset: 0x2B6, size: 0x8, addend: 0x0, symName: _yylineno, symObjAddr: 0x140C4, symBinAddr: 0x10001C000, symSize: 0x0 }
  - { offsetInCU: 0x2CC, offset: 0x2CC, size: 0x8, addend: 0x0, symName: _yy_flex_debug, symObjAddr: 0x81FE0, symBinAddr: 0x10001C020, symSize: 0x0 }
  - { offsetInCU: 0x2E2, offset: 0x2E2, size: 0x8, addend: 0x0, symName: _yytext, symObjAddr: 0x81FE8, symBinAddr: 0x10001C028, symSize: 0x0 }
  - { offsetInCU: 0x2F7, offset: 0x2F7, size: 0x8, addend: 0x0, symName: _sign_table, symObjAddr: 0x81FF0, symBinAddr: 0x10001C030, symSize: 0x0 }
  - { offsetInCU: 0xAD93, offset: 0xAD93, size: 0x8, addend: 0x0, symName: __ZNSt3__124__put_character_sequenceB7v160006IcNS_11char_traitsIcEEEERNS_13basic_ostreamIT_T0_EES7_PKS4_m, symObjAddr: 0x118CC, symBinAddr: 0x1000142AC, symSize: 0x1EC }
  - { offsetInCU: 0xD5CB, offset: 0xD5CB, size: 0x8, addend: 0x0, symName: __ZNSt3__17getlineB7v160006IcNS_11char_traitsIcEENS_9allocatorIcEEEERNS_13basic_istreamIT_T0_EES9_RNS_12basic_stringIS6_S7_T1_EES6_, symObjAddr: 0x5C0, symBinAddr: 0x100002FA0, symSize: 0x238 }
  - { offsetInCU: 0xD689, offset: 0xD689, size: 0x8, addend: 0x0, symName: __ZNSt3__1rsB7v160006IcNS_11char_traitsIcEENS_9allocatorIcEEEERNS_13basic_istreamIT_T0_EES9_RNS_12basic_stringIS6_S7_T1_EE, symObjAddr: 0x850, symBinAddr: 0x100003230, symSize: 0x318 }
  - { offsetInCU: 0xD758, offset: 0xD758, size: 0x8, addend: 0x0, symName: __ZNSt3__1eqB7v160006IcNS_11char_traitsIcEENS_9allocatorIcEEEEbRKNS_12basic_stringIT_T0_T1_EEPKS6_, symObjAddr: 0xB9C, symBinAddr: 0x10000357C, symSize: 0xAC }
  - { offsetInCU: 0xD7BF, offset: 0xD7BF, size: 0x8, addend: 0x0, symName: __ZNSt3__16all_ofB7v160006INS_11__wrap_iterIPcEEPFiiEEEbT_S6_T0_, symObjAddr: 0xC74, symBinAddr: 0x100003654, symSize: 0xA8 }
  - { offsetInCU: 0xD824, offset: 0xD824, size: 0x8, addend: 0x0, symName: __ZNSt3__14findB7v160006INS_11__wrap_iterIPNS_12basic_stringIcNS_11char_traitsIcEENS_9allocatorIcEEEEEES7_EET_SA_SA_RKT0_, symObjAddr: 0x1A48, symBinAddr: 0x100004428, symSize: 0x74 }
  - { offsetInCU: 0xD87E, offset: 0xD87E, size: 0x8, addend: 0x0, symName: __ZNSt3__1neB7v160006IPNS_12basic_stringIcNS_11char_traitsIcEENS_9allocatorIcEEEEEEbRKNS_11__wrap_iterIT_EESC_, symObjAddr: 0x1B1C, symBinAddr: 0x1000044FC, symSize: 0x34 }
  - { offsetInCU: 0xD8C1, offset: 0xD8C1, size: 0x8, addend: 0x0, symName: __ZNSt3__18distanceB7v160006INS_11__wrap_iterIPNS_12basic_stringIcNS_11char_traitsIcEENS_9allocatorIcEEEEEEEENS_15iterator_traitsIT_E15difference_typeESB_SB_, symObjAddr: 0x1B50, symBinAddr: 0x100004530, symSize: 0x3C }
  - { offsetInCU: 0xD904, offset: 0xD904, size: 0x8, addend: 0x0, symName: __ZNSt3__1neB7v160006IcNS_11char_traitsIcEENS_9allocatorIcEEEEbRKNS_12basic_stringIT_T0_T1_EEPKS6_, symObjAddr: 0x1BB8, symBinAddr: 0x100004598, symSize: 0x34 }
  - { offsetInCU: 0xD95C, offset: 0xD95C, size: 0x8, addend: 0x0, symName: __ZNSt3__1plB7v160006IcNS_11char_traitsIcEENS_9allocatorIcEEEENS_12basic_stringIT_T0_T1_EEOS9_PKS6_, symObjAddr: 0x2670, symBinAddr: 0x100005050, symSize: 0x40 }
  - { offsetInCU: 0xD9B4, offset: 0xD9B4, size: 0x8, addend: 0x0, symName: __ZNSt3__1plB7v160006IcNS_11char_traitsIcEENS_9allocatorIcEEEENS_12basic_stringIT_T0_T1_EEPKS6_OS9_, symObjAddr: 0x26B0, symBinAddr: 0x100005090, symSize: 0x44 }
  - { offsetInCU: 0xDA0C, offset: 0xDA0C, size: 0x8, addend: 0x0, symName: __ZNSt3__1neB7v160006IPKcEEbRKNS_11__wrap_iterIT_EES7_, symObjAddr: 0x2A54, symBinAddr: 0x100005434, symSize: 0x34 }
  - { offsetInCU: 0xDA4F, offset: 0xDA4F, size: 0x8, addend: 0x0, symName: __ZNSt3__1neB7v160006ERKNS_16__deque_iteratorINS_5dequeI5TokenNS_9allocatorIS2_EEEEPKS5_RS6_PKS7_lLl85EEESD_, symObjAddr: 0x2E48, symBinAddr: 0x100005828, symSize: 0x34 }
  - { offsetInCU: 0xDA8C, offset: 0xDA8C, size: 0x8, addend: 0x0, symName: __ZNSt3__1neB7v160006ERKNS_16__deque_iteratorI5TokenPKS1_RS2_PKS3_lLl85EEES9_, symObjAddr: 0x3008, symBinAddr: 0x1000059E8, symSize: 0x34 }
  - { offsetInCU: 0xDAC9, offset: 0xDAC9, size: 0x8, addend: 0x0, symName: __ZNSt3__1lsB7v160006IcNS_11char_traitsIcEENS_9allocatorIcEEEERNS_13basic_ostreamIT_T0_EES9_RKNS_12basic_stringIS6_S7_T1_EE, symObjAddr: 0x3054, symBinAddr: 0x100005A34, symSize: 0x4C }
  - { offsetInCU: 0xDB21, offset: 0xDB21, size: 0x8, addend: 0x0, symName: __ZNSt3__1lsB7v160006INS_11char_traitsIcEEEERNS_13basic_ostreamIcT_EES6_PKc, symObjAddr: 0x30A0, symBinAddr: 0x100005A80, symSize: 0x48 }
  - { offsetInCU: 0xDB67, offset: 0xDB67, size: 0x8, addend: 0x0, symName: __ZNSt3__14endlB7v160006IcNS_11char_traitsIcEEEERNS_13basic_ostreamIT_T0_EES7_, symObjAddr: 0x3114, symBinAddr: 0x100005AF4, symSize: 0x58 }
  - { offsetInCU: 0xDEE9, offset: 0xDEE9, size: 0x8, addend: 0x0, symName: __ZNSt3__16removeB7v160006INS_11__wrap_iterIPcEEcEET_S4_S4_RKT0_, symObjAddr: 0x5B14, symBinAddr: 0x1000084F4, symSize: 0x108 }
  - { offsetInCU: 0xDF91, offset: 0xDF91, size: 0x8, addend: 0x0, symName: __ZNSt3__1eqB7v160006IPNS_12basic_stringIcNS_11char_traitsIcEENS_9allocatorIcEEEEEEbRKNS_11__wrap_iterIT_EESC_, symObjAddr: 0x6004, symBinAddr: 0x1000089E4, symSize: 0x48 }
  - { offsetInCU: 0xDFD4, offset: 0xDFD4, size: 0x8, addend: 0x0, symName: __ZNSt3__1eqB7v160006IPKcEEbRKNS_11__wrap_iterIT_EES7_, symObjAddr: 0x609C, symBinAddr: 0x100008A7C, symSize: 0x48 }
  - { offsetInCU: 0xE017, offset: 0xE017, size: 0x8, addend: 0x0, symName: __ZNSt3__119__debug_db_insert_cB7v160006INS_12basic_stringIcNS_11char_traitsIcEENS_9allocatorIcEEEEEEvPT_, symObjAddr: 0x632C, symBinAddr: 0x100008D0C, symSize: 0x10 }
  - { offsetInCU: 0xE048, offset: 0xE048, size: 0x8, addend: 0x0, symName: __ZNSt3__112__to_addressB7v160006IKcEEPT_S3_, symObjAddr: 0x6538, symBinAddr: 0x100008F18, symSize: 0x14 }
  - { offsetInCU: 0xE0B0, offset: 0xE0B0, size: 0x8, addend: 0x0, symName: __ZNSt3__125__debug_db_invalidate_allB7v160006INS_12basic_stringIcNS_11char_traitsIcEENS_9allocatorIcEEEEEEvPT_, symObjAddr: 0x66D0, symBinAddr: 0x1000090B0, symSize: 0x10 }
  - { offsetInCU: 0xE114, offset: 0xE114, size: 0x8, addend: 0x0, symName: __ZNSt3__119__debug_db_insert_cB7v160006INS_6vectorINS_12basic_stringIcNS_11char_traitsIcEENS_9allocatorIcEEEENS5_IS7_EEEEEEvPT_, symObjAddr: 0x68AC, symBinAddr: 0x10000928C, symSize: 0x10 }
  - { offsetInCU: 0xE145, offset: 0xE145, size: 0x8, addend: 0x0, symName: __ZNSt3__118__debug_db_erase_cB7v160006INS_6vectorINS_12basic_stringIcNS_11char_traitsIcEENS_9allocatorIcEEEENS5_IS7_EEEEEEvPT_, symObjAddr: 0x6B8C, symBinAddr: 0x10000956C, symSize: 0x10 }
  - { offsetInCU: 0xE176, offset: 0xE176, size: 0x8, addend: 0x0, symName: __ZNSt3__112__to_addressB7v160006INS_12basic_stringIcNS_11char_traitsIcEENS_9allocatorIcEEEEEEPT_S8_, symObjAddr: 0x6CD0, symBinAddr: 0x1000096B0, symSize: 0x14 }
  - { offsetInCU: 0xE1AB, offset: 0xE1AB, size: 0x8, addend: 0x0, symName: __ZNSt3__119__libcpp_deallocateB7v160006EPvmm, symObjAddr: 0x6E08, symBinAddr: 0x1000097E8, symSize: 0x30 }
  - { offsetInCU: 0xE1F3, offset: 0xE1F3, size: 0x8, addend: 0x0, symName: __ZNSt3__127__do_deallocate_handle_sizeB7v160006IJEEEvPvmDpT_, symObjAddr: 0x6E38, symBinAddr: 0x100009818, symSize: 0x28 }
  - { offsetInCU: 0xE231, offset: 0xE231, size: 0x8, addend: 0x0, symName: __ZNSt3__124__libcpp_operator_deleteB7v160006IJPvEEEvDpT_, symObjAddr: 0x6E60, symBinAddr: 0x100009840, symSize: 0x24 }
  - { offsetInCU: 0xE266, offset: 0xE266, size: 0x8, addend: 0x0, symName: __ZNSt3__1neB7v160006ERKNS_16__deque_iteratorINS_5dequeI5TokenNS_9allocatorIS2_EEEEPS5_RS5_PS6_lLl85EEESB_, symObjAddr: 0x7650, symBinAddr: 0x10000A030, symSize: 0x34 }
  - { offsetInCU: 0xE2A3, offset: 0xE2A3, size: 0x8, addend: 0x0, symName: __ZNSt3__1eqB7v160006ERKNS_16__deque_iteratorINS_5dequeI5TokenNS_9allocatorIS2_EEEEPS5_RS5_PS6_lLl85EEESB_, symObjAddr: 0x78E4, symBinAddr: 0x10000A2C4, symSize: 0x30 }
  - { offsetInCU: 0xE2E0, offset: 0xE2E0, size: 0x8, addend: 0x0, symName: __ZNSt3__112__to_addressB7v160006IPNS_5dequeI5TokenNS_9allocatorIS2_EEEEEEPT_S8_, symObjAddr: 0x7C64, symBinAddr: 0x10000A644, symSize: 0x14 }
  - { offsetInCU: 0xE517, offset: 0xE517, size: 0x8, addend: 0x0, symName: __ZNSt3__1neB7v160006ERKNS_16__deque_iteratorI5TokenPS1_RS1_PS2_lLl85EEES7_, symObjAddr: 0x8BB0, symBinAddr: 0x10000B590, symSize: 0x34 }
  - { offsetInCU: 0xE554, offset: 0xE554, size: 0x8, addend: 0x0, symName: __ZNSt3__1eqB7v160006ERKNS_16__deque_iteratorI5TokenPS1_RS1_PS2_lLl85EEES7_, symObjAddr: 0x8DBC, symBinAddr: 0x10000B79C, symSize: 0x30 }
  - { offsetInCU: 0xE591, offset: 0xE591, size: 0x8, addend: 0x0, symName: __ZNSt3__112__to_addressB7v160006IP5TokenEEPT_S4_, symObjAddr: 0x9128, symBinAddr: 0x10000BB08, symSize: 0x14 }
  - { offsetInCU: 0xE7C7, offset: 0xE7C7, size: 0x8, addend: 0x0, symName: __ZNSt3__19use_facetB7v160006INS_5ctypeIcEEEERKT_RKNS_6localeE, symObjAddr: 0x9254, symBinAddr: 0x10000BC34, symSize: 0x2C }
  - { offsetInCU: 0xEBA7, offset: 0xEBA7, size: 0x8, addend: 0x0, symName: __ZNSt3__118__constexpr_strlenB7v160006EPKc, symObjAddr: 0x9434, symBinAddr: 0x10000BE14, symSize: 0x24 }
  - { offsetInCU: 0xEBD3, offset: 0xEBD3, size: 0x8, addend: 0x0, symName: __ZNSt3__1neB7v160006IPcEEbRKNS_11__wrap_iterIT_EES6_, symObjAddr: 0x9540, symBinAddr: 0x10000BF20, symSize: 0x34 }
  - { offsetInCU: 0xEC16, offset: 0xEC16, size: 0x8, addend: 0x0, symName: __ZNSt3__1eqB7v160006IPcEEbRKNS_11__wrap_iterIT_EES6_, symObjAddr: 0x95AC, symBinAddr: 0x10000BF8C, symSize: 0x48 }
  - { offsetInCU: 0xEC59, offset: 0xEC59, size: 0x8, addend: 0x0, symName: __ZNSt3__13maxB7v160006ImEERKT_S3_S3_, symObjAddr: 0xA19C, symBinAddr: 0x10000CB7C, symSize: 0x2C }
  - { offsetInCU: 0xF0F5, offset: 0xF0F5, size: 0x8, addend: 0x0, symName: __ZNSt3__14swapB7v160006IPP5TokenEENS_9enable_ifIXaasr21is_move_constructibleIT_EE5valuesr18is_move_assignableIS5_EE5valueEvE4typeERS5_S8_, symObjAddr: 0xA7AC, symBinAddr: 0x10000D18C, symSize: 0x3C }
  - { offsetInCU: 0xF146, offset: 0xF146, size: 0x8, addend: 0x0, symName: __ZNSt3__14moveB7v160006IPP5TokenS3_EET0_T_S5_S4_, symObjAddr: 0xA890, symBinAddr: 0x10000D270, symSize: 0x40 }
  - { offsetInCU: 0xF1A0, offset: 0xF1A0, size: 0x8, addend: 0x0, symName: __ZNSt3__16__moveB7v160006INS_17_ClassicAlgPolicyEPP5TokenS4_S4_EENS_4pairIT0_T2_EES6_T1_S7_, symObjAddr: 0xAA34, symBinAddr: 0x10000D414, symSize: 0x44 }
  - { offsetInCU: 0xF20C, offset: 0xF20C, size: 0x8, addend: 0x0, symName: __ZNSt3__123__dispatch_copy_or_moveB7v160006INS_17_ClassicAlgPolicyENS_11__move_loopIS1_EENS_14__move_trivialEPP5TokenS7_S7_EENS_4pairIT2_T4_EES9_T3_SA_, symObjAddr: 0xAA78, symBinAddr: 0x10000D458, symSize: 0x44 }
  - { offsetInCU: 0xF28A, offset: 0xF28A, size: 0x8, addend: 0x0, symName: __ZNSt3__121__unwrap_and_dispatchB7v160006INS_10__overloadINS_11__move_loopINS_17_ClassicAlgPolicyEEENS_14__move_trivialEEEPP5TokenS9_S9_Li0EEENS_4pairIT0_T2_EESB_T1_SC_, symObjAddr: 0xAABC, symBinAddr: 0x10000D49C, symSize: 0xB4 }
  - { offsetInCU: 0xF318, offset: 0xF318, size: 0x8, addend: 0x0, symName: __ZNSt3__114__unwrap_rangeB7v160006IPP5TokenS3_EENS_4pairIT0_S5_EET_S7_, symObjAddr: 0xAB70, symBinAddr: 0x10000D550, symSize: 0x60 }
  - { offsetInCU: 0xF518, offset: 0xF518, size: 0x8, addend: 0x0, symName: __ZNSt3__113__unwrap_iterB7v160006IPP5TokenNS_18__unwrap_iter_implIS3_Lb1EEELi0EEEDTclsrT0_8__unwrapclsr3stdE7declvalIT_EEEES7_, symObjAddr: 0xAC18, symBinAddr: 0x10000D5F8, symSize: 0x24 }
  - { offsetInCU: 0xF55C, offset: 0xF55C, size: 0x8, addend: 0x0, symName: __ZNSt3__19make_pairB7v160006IPP5TokenS3_EENS_4pairINS_18__unwrap_ref_decayIT_E4typeENS5_IT0_E4typeEEEOS6_OS9_, symObjAddr: 0xAC3C, symBinAddr: 0x10000D61C, symSize: 0x38 }
  - { offsetInCU: 0xF5AB, offset: 0xF5AB, size: 0x8, addend: 0x0, symName: __ZNSt3__114__rewrap_rangeB7v160006IPP5TokenS3_EET_S4_T0_, symObjAddr: 0xAC74, symBinAddr: 0x10000D654, symSize: 0x2C }
  - { offsetInCU: 0xF5F7, offset: 0xF5F7, size: 0x8, addend: 0x0, symName: __ZNSt3__113__rewrap_iterB7v160006IPP5TokenS3_NS_18__unwrap_iter_implIS3_Lb1EEEEET_S6_T0_, symObjAddr: 0xACA0, symBinAddr: 0x10000D680, symSize: 0x3C }
  - { offsetInCU: 0xF64C, offset: 0xF64C, size: 0x8, addend: 0x0, symName: __ZNSt3__119__copy_trivial_implB7v160006IP5TokenS2_EENS_4pairIPT_PT0_EES5_S5_S7_, symObjAddr: 0xACDC, symBinAddr: 0x10000D6BC, symSize: 0x84 }
  - { offsetInCU: 0xF6B4, offset: 0xF6B4, size: 0x8, addend: 0x0, symName: __ZNSt3__19make_pairB7v160006IRPP5TokenS3_EENS_4pairINS_18__unwrap_ref_decayIT_E4typeENS6_IT0_E4typeEEEOS7_OSA_, symObjAddr: 0xAD60, symBinAddr: 0x10000D740, symSize: 0x38 }
  - { offsetInCU: 0xF756, offset: 0xF756, size: 0x8, addend: 0x0, symName: __ZNSt3__18distanceB7v160006INS_13move_iteratorIPP5TokenEEEENS_15iterator_traitsIT_E15difference_typeES7_S7_, symObjAddr: 0xAEEC, symBinAddr: 0x10000D8CC, symSize: 0x3C }
  - { offsetInCU: 0xF799, offset: 0xF799, size: 0x8, addend: 0x0, symName: __ZNSt3__110__distanceB7v160006INS_13move_iteratorIPP5TokenEEEENS_15iterator_traitsIT_E15difference_typeES7_S7_NS_26random_access_iterator_tagE, symObjAddr: 0xB024, symBinAddr: 0x10000DA04, symSize: 0x30 }
  - { offsetInCU: 0xF7E6, offset: 0xF7E6, size: 0x8, addend: 0x0, symName: __ZNSt3__1miB7v160006IPP5TokenS3_EEDTmicldtfp_4baseEcldtfp0_4baseEERKNS_13move_iteratorIT_EERKNS5_IT0_EE, symObjAddr: 0xB054, symBinAddr: 0x10000DA34, symSize: 0x48 }
  - { offsetInCU: 0xF835, offset: 0xF835, size: 0x8, addend: 0x0, symName: __ZNSt3__117__libcpp_allocateB7v160006Emm, symObjAddr: 0xB27C, symBinAddr: 0x10000DC5C, symSize: 0x28 }
  - { offsetInCU: 0xF872, offset: 0xF872, size: 0x8, addend: 0x0, symName: __ZNSt3__121__libcpp_operator_newB7v160006IJmEEEPvDpT_, symObjAddr: 0xB2BC, symBinAddr: 0x10000DC9C, symSize: 0x24 }
  - { offsetInCU: 0xF8AB, offset: 0xF8AB, size: 0x8, addend: 0x0, symName: __ZNSt3__113move_backwardB7v160006IPP5TokenS3_EET0_T_S5_S4_, symObjAddr: 0xB2E0, symBinAddr: 0x10000DCC0, symSize: 0x40 }
  - { offsetInCU: 0xF905, offset: 0xF905, size: 0x8, addend: 0x0, symName: __ZNSt3__115__move_backwardB7v160006INS_17_ClassicAlgPolicyEPP5TokenS4_S4_EENS_4pairIT0_T2_EES6_T1_S7_, symObjAddr: 0xB320, symBinAddr: 0x10000DD00, symSize: 0x44 }
  - { offsetInCU: 0xF971, offset: 0xF971, size: 0x8, addend: 0x0, symName: __ZNSt3__123__dispatch_copy_or_moveB7v160006INS_17_ClassicAlgPolicyENS_20__move_backward_loopIS1_EENS_23__move_backward_trivialEPP5TokenS7_S7_EENS_4pairIT2_T4_EES9_T3_SA_, symObjAddr: 0xB364, symBinAddr: 0x10000DD44, symSize: 0x44 }
  - { offsetInCU: 0xF9EF, offset: 0xF9EF, size: 0x8, addend: 0x0, symName: __ZNSt3__121__unwrap_and_dispatchB7v160006INS_10__overloadINS_20__move_backward_loopINS_17_ClassicAlgPolicyEEENS_23__move_backward_trivialEEEPP5TokenS9_S9_Li0EEENS_4pairIT0_T2_EESB_T1_SC_, symObjAddr: 0xB3A8, symBinAddr: 0x10000DD88, symSize: 0xB4 }
  - { offsetInCU: 0xFAFF, offset: 0xFAFF, size: 0x8, addend: 0x0, symName: __ZNSt3__128__copy_backward_trivial_implB7v160006IP5TokenS2_EENS_4pairIPT_PT0_EES5_S5_S7_, symObjAddr: 0xB4A4, symBinAddr: 0x10000DE84, symSize: 0x94 }
  - { offsetInCU: 0xFB67, offset: 0xFB67, size: 0x8, addend: 0x0, symName: __ZNSt3__19make_pairB7v160006IRPP5TokenS4_EENS_4pairINS_18__unwrap_ref_decayIT_E4typeENS6_IT0_E4typeEEEOS7_OSA_, symObjAddr: 0xB538, symBinAddr: 0x10000DF18, symSize: 0x38 }
  - { offsetInCU: 0xFBB6, offset: 0xFBB6, size: 0x8, addend: 0x0, symName: __ZNSt3__13maxB7v160006ImNS_6__lessImmEEEERKT_S5_S5_T0_, symObjAddr: 0xB5E0, symBinAddr: 0x10000DFC0, symSize: 0x54 }
  - { offsetInCU: 0xFC4B, offset: 0xFC4B, size: 0x8, addend: 0x0, symName: __ZNSt3__119__allocate_at_leastB7v160006INS_9allocatorIP5TokenEEEENS_19__allocation_resultINS_16allocator_traitsIT_E7pointerEEERS7_m, symObjAddr: 0xB778, symBinAddr: 0x10000E158, symSize: 0x40 }
  - { offsetInCU: 0xFC8E, offset: 0xFC8E, size: 0x8, addend: 0x0, symName: __ZNSt3__115__debug_db_swapB7v160006INS_12basic_stringIcNS_11char_traitsIcEENS_9allocatorIcEEEEEEvPT_S8_, symObjAddr: 0xBFA8, symBinAddr: 0x10000E988, symSize: 0x14 }
  - { offsetInCU: 0x10126, offset: 0x10126, size: 0x8, addend: 0x0, symName: __ZNSt3__14swapB7v160006IPPNS_5dequeI5TokenNS_9allocatorIS2_EEEEEENS_9enable_ifIXaasr21is_move_constructibleIT_EE5valuesr18is_move_assignableIS9_EE5valueEvE4typeERS9_SC_, symObjAddr: 0xD140, symBinAddr: 0x10000FB20, symSize: 0x3C }
  - { offsetInCU: 0x10177, offset: 0x10177, size: 0x8, addend: 0x0, symName: __ZNSt3__14moveB7v160006IPPNS_5dequeI5TokenNS_9allocatorIS2_EEEES7_EET0_T_S9_S8_, symObjAddr: 0xD224, symBinAddr: 0x10000FC04, symSize: 0x40 }
  - { offsetInCU: 0x101D1, offset: 0x101D1, size: 0x8, addend: 0x0, symName: __ZNSt3__16__moveB7v160006INS_17_ClassicAlgPolicyEPPNS_5dequeI5TokenNS_9allocatorIS3_EEEES8_S8_EENS_4pairIT0_T2_EESA_T1_SB_, symObjAddr: 0xD3C8, symBinAddr: 0x10000FDA8, symSize: 0x44 }
  - { offsetInCU: 0x1023D, offset: 0x1023D, size: 0x8, addend: 0x0, symName: __ZNSt3__123__dispatch_copy_or_moveB7v160006INS_17_ClassicAlgPolicyENS_11__move_loopIS1_EENS_14__move_trivialEPPNS_5dequeI5TokenNS_9allocatorIS6_EEEESB_SB_EENS_4pairIT2_T4_EESD_T3_SE_, symObjAddr: 0xD40C, symBinAddr: 0x10000FDEC, symSize: 0x44 }
  - { offsetInCU: 0x102BB, offset: 0x102BB, size: 0x8, addend: 0x0, symName: __ZNSt3__121__unwrap_and_dispatchB7v160006INS_10__overloadINS_11__move_loopINS_17_ClassicAlgPolicyEEENS_14__move_trivialEEEPPNS_5dequeI5TokenNS_9allocatorIS8_EEEESD_SD_Li0EEENS_4pairIT0_T2_EESF_T1_SG_, symObjAddr: 0xD450, symBinAddr: 0x10000FE30, symSize: 0xB4 }
  - { offsetInCU: 0x10349, offset: 0x10349, size: 0x8, addend: 0x0, symName: __ZNSt3__114__unwrap_rangeB7v160006IPPNS_5dequeI5TokenNS_9allocatorIS2_EEEES7_EENS_4pairIT0_S9_EET_SB_, symObjAddr: 0xD504, symBinAddr: 0x10000FEE4, symSize: 0x60 }
  - { offsetInCU: 0x104C7, offset: 0x104C7, size: 0x8, addend: 0x0, symName: __ZNSt3__113__unwrap_iterB7v160006IPPNS_5dequeI5TokenNS_9allocatorIS2_EEEENS_18__unwrap_iter_implIS7_Lb1EEELi0EEEDTclsrT0_8__unwrapclsr3stdE7declvalIT_EEEESB_, symObjAddr: 0xD5AC, symBinAddr: 0x10000FF8C, symSize: 0x24 }
  - { offsetInCU: 0x1050B, offset: 0x1050B, size: 0x8, addend: 0x0, symName: __ZNSt3__19make_pairB7v160006IPPNS_5dequeI5TokenNS_9allocatorIS2_EEEES7_EENS_4pairINS_18__unwrap_ref_decayIT_E4typeENS9_IT0_E4typeEEEOSA_OSD_, symObjAddr: 0xD5D0, symBinAddr: 0x10000FFB0, symSize: 0x38 }
  - { offsetInCU: 0x1055A, offset: 0x1055A, size: 0x8, addend: 0x0, symName: __ZNSt3__114__rewrap_rangeB7v160006IPPNS_5dequeI5TokenNS_9allocatorIS2_EEEES7_EET_S8_T0_, symObjAddr: 0xD608, symBinAddr: 0x10000FFE8, symSize: 0x2C }
  - { offsetInCU: 0x105A6, offset: 0x105A6, size: 0x8, addend: 0x0, symName: __ZNSt3__113__rewrap_iterB7v160006IPPNS_5dequeI5TokenNS_9allocatorIS2_EEEES7_NS_18__unwrap_iter_implIS7_Lb1EEEEET_SA_T0_, symObjAddr: 0xD634, symBinAddr: 0x100010014, symSize: 0x3C }
  - { offsetInCU: 0x105FB, offset: 0x105FB, size: 0x8, addend: 0x0, symName: __ZNSt3__119__copy_trivial_implB7v160006IPNS_5dequeI5TokenNS_9allocatorIS2_EEEES6_EENS_4pairIPT_PT0_EES9_S9_SB_, symObjAddr: 0xD670, symBinAddr: 0x100010050, symSize: 0x84 }
  - { offsetInCU: 0x10663, offset: 0x10663, size: 0x8, addend: 0x0, symName: __ZNSt3__19make_pairB7v160006IRPPNS_5dequeI5TokenNS_9allocatorIS2_EEEES7_EENS_4pairINS_18__unwrap_ref_decayIT_E4typeENSA_IT0_E4typeEEEOSB_OSE_, symObjAddr: 0xD6F4, symBinAddr: 0x1000100D4, symSize: 0x38 }
  - { offsetInCU: 0x10705, offset: 0x10705, size: 0x8, addend: 0x0, symName: __ZNSt3__18distanceB7v160006INS_13move_iteratorIPPNS_5dequeI5TokenNS_9allocatorIS3_EEEEEEEENS_15iterator_traitsIT_E15difference_typeESB_SB_, symObjAddr: 0xD880, symBinAddr: 0x100010260, symSize: 0x3C }
  - { offsetInCU: 0x10748, offset: 0x10748, size: 0x8, addend: 0x0, symName: __ZNSt3__110__distanceB7v160006INS_13move_iteratorIPPNS_5dequeI5TokenNS_9allocatorIS3_EEEEEEEENS_15iterator_traitsIT_E15difference_typeESB_SB_NS_26random_access_iterator_tagE, symObjAddr: 0xD9B8, symBinAddr: 0x100010398, symSize: 0x30 }
  - { offsetInCU: 0x10795, offset: 0x10795, size: 0x8, addend: 0x0, symName: __ZNSt3__1miB7v160006IPPNS_5dequeI5TokenNS_9allocatorIS2_EEEES7_EEDTmicldtfp_4baseEcldtfp0_4baseEERKNS_13move_iteratorIT_EERKNS9_IT0_EE, symObjAddr: 0xD9E8, symBinAddr: 0x1000103C8, symSize: 0x48 }
  - { offsetInCU: 0x107E4, offset: 0x107E4, size: 0x8, addend: 0x0, symName: __ZNSt3__113move_backwardB7v160006IPPNS_5dequeI5TokenNS_9allocatorIS2_EEEES7_EET0_T_S9_S8_, symObjAddr: 0xDBF4, symBinAddr: 0x1000105D4, symSize: 0x40 }
  - { offsetInCU: 0x1083E, offset: 0x1083E, size: 0x8, addend: 0x0, symName: __ZNSt3__115__move_backwardB7v160006INS_17_ClassicAlgPolicyEPPNS_5dequeI5TokenNS_9allocatorIS3_EEEES8_S8_EENS_4pairIT0_T2_EESA_T1_SB_, symObjAddr: 0xDC34, symBinAddr: 0x100010614, symSize: 0x44 }
  - { offsetInCU: 0x108AA, offset: 0x108AA, size: 0x8, addend: 0x0, symName: __ZNSt3__123__dispatch_copy_or_moveB7v160006INS_17_ClassicAlgPolicyENS_20__move_backward_loopIS1_EENS_23__move_backward_trivialEPPNS_5dequeI5TokenNS_9allocatorIS6_EEEESB_SB_EENS_4pairIT2_T4_EESD_T3_SE_, symObjAddr: 0xDC78, symBinAddr: 0x100010658, symSize: 0x44 }
  - { offsetInCU: 0x10928, offset: 0x10928, size: 0x8, addend: 0x0, symName: __ZNSt3__121__unwrap_and_dispatchB7v160006INS_10__overloadINS_20__move_backward_loopINS_17_ClassicAlgPolicyEEENS_23__move_backward_trivialEEEPPNS_5dequeI5TokenNS_9allocatorIS8_EEEESD_SD_Li0EEENS_4pairIT0_T2_EESF_T1_SG_, symObjAddr: 0xDCBC, symBinAddr: 0x10001069C, symSize: 0xB4 }
  - { offsetInCU: 0x109B6, offset: 0x109B6, size: 0x8, addend: 0x0, symName: __ZNSt3__128__copy_backward_trivial_implB7v160006IPNS_5dequeI5TokenNS_9allocatorIS2_EEEES6_EENS_4pairIPT_PT0_EES9_S9_SB_, symObjAddr: 0xDDB8, symBinAddr: 0x100010798, symSize: 0x94 }
  - { offsetInCU: 0x10A1E, offset: 0x10A1E, size: 0x8, addend: 0x0, symName: __ZNSt3__19make_pairB7v160006IRPPNS_5dequeI5TokenNS_9allocatorIS2_EEEES8_EENS_4pairINS_18__unwrap_ref_decayIT_E4typeENSA_IT0_E4typeEEEOSB_OSE_, symObjAddr: 0xDE4C, symBinAddr: 0x10001082C, symSize: 0x38 }
  - { offsetInCU: 0x10A6D, offset: 0x10A6D, size: 0x8, addend: 0x0, symName: __ZNSt3__119__allocate_at_leastB7v160006INS_9allocatorIPNS_5dequeI5TokenNS1_IS3_EEEEEEEENS_19__allocation_resultINS_16allocator_traitsIT_E7pointerEEERSA_m, symObjAddr: 0xE004, symBinAddr: 0x1000109E4, symSize: 0x40 }
  - { offsetInCU: 0x10AB0, offset: 0x10AB0, size: 0x8, addend: 0x0, symName: __ZNSt3__18distanceB7v160006INS_16__deque_iteratorI5TokenPKS2_RS3_PKS4_lLl85EEEEENS_15iterator_traitsIT_E15difference_typeESA_SA_, symObjAddr: 0xEC80, symBinAddr: 0x100011660, symSize: 0x4C }
  - { offsetInCU: 0x10AF3, offset: 0x10AF3, size: 0x8, addend: 0x0, symName: __ZNSt3__1neB7v160006ERKNS_5dequeI5TokenNS_9allocatorIS1_EEE13__deque_rangeES7_, symObjAddr: 0xF388, symBinAddr: 0x100011D68, symSize: 0x34 }
  - { offsetInCU: 0x10B30, offset: 0x10B30, size: 0x8, addend: 0x0, symName: __ZNSt3__112__to_addressB7v160006I5TokenEEPT_S3_, symObjAddr: 0xF4A8, symBinAddr: 0x100011E88, symSize: 0x14 }
  - { offsetInCU: 0x10B65, offset: 0x10B65, size: 0x8, addend: 0x0, symName: __ZNSt3__110__distanceB7v160006INS_16__deque_iteratorI5TokenPKS2_RS3_PKS4_lLl85EEEEENS_15iterator_traitsIT_E15difference_typeESA_SA_NS_26random_access_iterator_tagE, symObjAddr: 0xF54C, symBinAddr: 0x100011F2C, symSize: 0x38 }
  - { offsetInCU: 0x10BB2, offset: 0x10BB2, size: 0x8, addend: 0x0, symName: __ZNSt3__1miB7v160006ERKNS_16__deque_iteratorI5TokenPKS1_RS2_PKS3_lLl85EEES9_, symObjAddr: 0xF584, symBinAddr: 0x100011F64, symSize: 0xB0 }
  - { offsetInCU: 0x10BEF, offset: 0x10BEF, size: 0x8, addend: 0x0, symName: __ZNSt3__13minB7v160006ImEERKT_S3_S3_, symObjAddr: 0xF674, symBinAddr: 0x100012054, symSize: 0x2C }
  - { offsetInCU: 0x10C32, offset: 0x10C32, size: 0x8, addend: 0x0, symName: __ZNSt3__13minB7v160006ImNS_6__lessImmEEEERKT_S5_S5_T0_, symObjAddr: 0xF930, symBinAddr: 0x100012310, symSize: 0x54 }
  - { offsetInCU: 0x10C8C, offset: 0x10C8C, size: 0x8, addend: 0x0, symName: __ZNSt3__1eqB7v160006ERKNS_5dequeI5TokenNS_9allocatorIS1_EEE13__deque_rangeES7_, symObjAddr: 0xFAD8, symBinAddr: 0x1000124B8, symSize: 0x30 }
  - { offsetInCU: 0x10CC9, offset: 0x10CC9, size: 0x8, addend: 0x0, symName: __ZNSt3__1eqB7v160006INS_9allocatorIcEEEEbRKNS_12basic_stringIcNS_11char_traitsIcEET_EES9_, symObjAddr: 0xFDE0, symBinAddr: 0x1000127C0, symSize: 0x148 }
  - { offsetInCU: 0x10D3C, offset: 0x10D3C, size: 0x8, addend: 0x0, symName: __ZNSt3__118__constexpr_memcmpB7v160006IcEEiPKT_S3_m, symObjAddr: 0xFFCC, symBinAddr: 0x1000129AC, symSize: 0x34 }
  - { offsetInCU: 0x10D8D, offset: 0x10D8D, size: 0x8, addend: 0x0, symName: __ZNSt3__110__distanceB7v160006INS_11__wrap_iterIPNS_12basic_stringIcNS_11char_traitsIcEENS_9allocatorIcEEEEEEEENS_15iterator_traitsIT_E15difference_typeESB_SB_NS_26random_access_iterator_tagE, symObjAddr: 0x10000, symBinAddr: 0x1000129E0, symSize: 0x30 }
  - { offsetInCU: 0x10DDA, offset: 0x10DDA, size: 0x8, addend: 0x0, symName: __ZNSt3__1miB7v160006IPNS_12basic_stringIcNS_11char_traitsIcEENS_9allocatorIcEEEES7_EEDTmicldtfp_4baseEcldtfp0_4baseEERKNS_11__wrap_iterIT_EERKNS9_IT0_EE, symObjAddr: 0x10030, symBinAddr: 0x100012A10, symSize: 0x48 }
  - { offsetInCU: 0x10E26, offset: 0x10E26, size: 0x8, addend: 0x0, symName: __ZNSt3__120__throw_length_errorB7v160006EPKc, symObjAddr: 0x106CC, symBinAddr: 0x1000130AC, symSize: 0x64 }
  - { offsetInCU: 0x10E4E, offset: 0x10E4E, size: 0x8, addend: 0x0, symName: __ZNSt3__119__allocate_at_leastB7v160006INS_9allocatorINS_12basic_stringIcNS_11char_traitsIcEENS1_IcEEEEEEEENS_19__allocation_resultINS_16allocator_traitsIT_E7pointerEEERSA_m, symObjAddr: 0x108CC, symBinAddr: 0x1000132AC, symSize: 0x40 }
  - { offsetInCU: 0x10E91, offset: 0x10E91, size: 0x8, addend: 0x0, symName: __ZNSt3__142__uninitialized_allocator_move_if_noexceptB7v160006INS_9allocatorINS_12basic_stringIcNS_11char_traitsIcEENS1_IcEEEEEENS_16reverse_iteratorIPS6_EESA_SA_EET2_RT_T0_T1_SB_, symObjAddr: 0x10A84, symBinAddr: 0x100013464, symSize: 0x12C }
  - { offsetInCU: 0x10F31, offset: 0x10F31, size: 0x8, addend: 0x0, symName: __ZNSt3__14swapB7v160006IPNS_12basic_stringIcNS_11char_traitsIcEENS_9allocatorIcEEEEEENS_9enable_ifIXaasr21is_move_constructibleIT_EE5valuesr18is_move_assignableIS9_EE5valueEvE4typeERS9_SC_, symObjAddr: 0x10BFC, symBinAddr: 0x1000135DC, symSize: 0x3C }
  - { offsetInCU: 0x10F82, offset: 0x10F82, size: 0x8, addend: 0x0, symName: __ZNSt3__125__debug_db_invalidate_allB7v160006INS_6vectorINS_12basic_stringIcNS_11char_traitsIcEENS_9allocatorIcEEEENS5_IS7_EEEEEEvPT_, symObjAddr: 0x10D00, symBinAddr: 0x1000136E0, symSize: 0x10 }
  - { offsetInCU: 0x10FB3, offset: 0x10FB3, size: 0x8, addend: 0x0, symName: __ZNSt3__122__make_exception_guardB7v160006INS_29_AllocatorDestroyRangeReverseINS_9allocatorINS_12basic_stringIcNS_11char_traitsIcEENS2_IcEEEEEENS_16reverse_iteratorIPS7_EEEEEENS_28__exception_guard_exceptionsIT_EESE_, symObjAddr: 0x10D10, symBinAddr: 0x1000136F0, symSize: 0x4C }
  - { offsetInCU: 0x10FE9, offset: 0x10FE9, size: 0x8, addend: 0x0, symName: __ZNSt3__1neB7v160006IPNS_12basic_stringIcNS_11char_traitsIcEENS_9allocatorIcEEEES7_EEbRKNS_16reverse_iteratorIT_EERKNS8_IT0_EE, symObjAddr: 0x10DA0, symBinAddr: 0x100013780, symSize: 0x48 }
  - { offsetInCU: 0x11035, offset: 0x11035, size: 0x8, addend: 0x0, symName: __ZNSt3__112__to_addressB7v160006INS_16reverse_iteratorIPNS_12basic_stringIcNS_11char_traitsIcEENS_9allocatorIcEEEEEEvEENS_5decayIDTclsr19__to_address_helperIT_EE6__callclsr3stdE7declvalIRKSB_EEEEE4typeESD_, symObjAddr: 0x10E1C, symBinAddr: 0x1000137FC, symSize: 0x24 }
  - { offsetInCU: 0x11094, offset: 0x11094, size: 0x8, addend: 0x0, symName: __ZNSt3__119__allocator_destroyB7v160006INS_9allocatorINS_12basic_stringIcNS_11char_traitsIcEENS1_IcEEEEEENS_16reverse_iteratorINS8_IPS6_EEEESB_EEvRT_T0_T1_, symObjAddr: 0x110FC, symBinAddr: 0x100013ADC, symSize: 0x70 }
  - { offsetInCU: 0x110F9, offset: 0x110F9, size: 0x8, addend: 0x0, symName: __ZNSt3__1neB7v160006INS_16reverse_iteratorIPNS_12basic_stringIcNS_11char_traitsIcEENS_9allocatorIcEEEEEES9_EEbRKNS1_IT_EERKNS1_IT0_EE, symObjAddr: 0x111A8, symBinAddr: 0x100013B88, symSize: 0x60 }
  - { offsetInCU: 0x11145, offset: 0x11145, size: 0x8, addend: 0x0, symName: __ZNSt3__112__to_addressB7v160006INS_16reverse_iteratorINS1_IPNS_12basic_stringIcNS_11char_traitsIcEENS_9allocatorIcEEEEEEEEvEENS_5decayIDTclsr19__to_address_helperIT_EE6__callclsr3stdE7declvalIRKSC_EEEEE4typeESE_, symObjAddr: 0x11208, symBinAddr: 0x100013BE8, symSize: 0x24 }
  - { offsetInCU: 0x111A4, offset: 0x111A4, size: 0x8, addend: 0x0, symName: __ZNSt3__112__to_addressB7v160006INS_5dequeI5TokenNS_9allocatorIS2_EEEEEEPT_S7_, symObjAddr: 0x11570, symBinAddr: 0x100013F50, symSize: 0x14 }
  - { offsetInCU: 0x111D9, offset: 0x111D9, size: 0x8, addend: 0x0, symName: __ZNSt3__1eqB7v160006ERKNS_16__deque_iteratorINS_5dequeI5TokenNS_9allocatorIS2_EEEEPKS5_RS6_PKS7_lLl85EEESD_, symObjAddr: 0x11804, symBinAddr: 0x1000141E4, symSize: 0x30 }
  - { offsetInCU: 0x11216, offset: 0x11216, size: 0x8, addend: 0x0, symName: __ZNSt3__1eqB7v160006ERKNS_16__deque_iteratorI5TokenPKS1_RS2_PKS3_lLl85EEES9_, symObjAddr: 0x1189C, symBinAddr: 0x10001427C, symSize: 0x30 }
  - { offsetInCU: 0x11253, offset: 0x11253, size: 0x8, addend: 0x0, symName: __ZNSt3__116__pad_and_outputB7v160006IcNS_11char_traitsIcEEEENS_19ostreambuf_iteratorIT_T0_EES6_PKS4_S8_S8_RNS_8ios_baseES4_, symObjAddr: 0x11AD4, symBinAddr: 0x1000144B4, symSize: 0x240 }
  - { offsetInCU: 0x11322, offset: 0x11322, size: 0x8, addend: 0x0, symName: __ZNSt3__14findB7v160006INS_11__wrap_iterIPcEEcEET_S4_S4_RKT0_, symObjAddr: 0x121C4, symBinAddr: 0x100014BA4, symSize: 0x80 }
  - { offsetInCU: 0x1137C, offset: 0x1137C, size: 0x8, addend: 0x0, symName: __ZNSt3__1miB7v160006IPKcPcEEDTmicldtfp_4baseEcldtfp0_4baseEERKNS_11__wrap_iterIT_EERKNS5_IT0_EE, symObjAddr: 0x12244, symBinAddr: 0x100014C24, symSize: 0x40 }
  - { offsetInCU: 0x113C8, offset: 0x113C8, size: 0x8, addend: 0x0, symName: __ZNSt3__1miB7v160006IPKcS2_EEDTmicldtfp_4baseEcldtfp0_4baseEERKNS_11__wrap_iterIT_EERKNS4_IT0_EE, symObjAddr: 0x12284, symBinAddr: 0x100014C64, symSize: 0x40 }
  - { offsetInCU: 0x11414, offset: 0x11414, size: 0x8, addend: 0x0, symName: __ZNSt3__18distanceB7v160006INS_16__deque_iteratorINS_5dequeI5TokenNS_9allocatorIS3_EEEEPKS6_RS7_PKS8_lLl85EEEEENS_15iterator_traitsIT_E15difference_typeESE_SE_, symObjAddr: 0x12920, symBinAddr: 0x100015300, symSize: 0x4C }
  - { offsetInCU: 0x11457, offset: 0x11457, size: 0x8, addend: 0x0, symName: __ZNSt3__1neB7v160006ERKNS_5dequeINS0_I5TokenNS_9allocatorIS1_EEEENS2_IS4_EEE13__deque_rangeES9_, symObjAddr: 0x13028, symBinAddr: 0x100015A08, symSize: 0x34 }
  - { offsetInCU: 0x11494, offset: 0x11494, size: 0x8, addend: 0x0, symName: __ZNSt3__110__distanceB7v160006INS_16__deque_iteratorINS_5dequeI5TokenNS_9allocatorIS3_EEEEPKS6_RS7_PKS8_lLl85EEEEENS_15iterator_traitsIT_E15difference_typeESE_SE_NS_26random_access_iterator_tagE, symObjAddr: 0x131A4, symBinAddr: 0x100015B84, symSize: 0x38 }
  - { offsetInCU: 0x114E1, offset: 0x114E1, size: 0x8, addend: 0x0, symName: __ZNSt3__1miB7v160006ERKNS_16__deque_iteratorINS_5dequeI5TokenNS_9allocatorIS2_EEEEPKS5_RS6_PKS7_lLl85EEESD_, symObjAddr: 0x131DC, symBinAddr: 0x100015BBC, symSize: 0xB0 }
  - { offsetInCU: 0x1151E, offset: 0x1151E, size: 0x8, addend: 0x0, symName: __ZNSt3__1eqB7v160006ERKNS_5dequeINS0_I5TokenNS_9allocatorIS1_EEEENS2_IS4_EEE13__deque_rangeES9_, symObjAddr: 0x136B0, symBinAddr: 0x100016090, symSize: 0x30 }
  - { offsetInCU: 0x11B1E, offset: 0x11B1E, size: 0x8, addend: 0x0, symName: __ZSt28__throw_bad_array_new_lengthB7v160006v, symObjAddr: 0xB248, symBinAddr: 0x10000DC28, symSize: 0x34 }
  - { offsetInCU: 0x11E89, offset: 0x11E89, size: 0x8, addend: 0x0, symName: _token, symObjAddr: 0x82008, symBinAddr: 0x10001C048, symSize: 0x0 }
  - { offsetInCU: 0x122FD, offset: 0x122FD, size: 0x8, addend: 0x0, symName: _numChars, symObjAddr: 0x82038, symBinAddr: 0x10001C078, symSize: 0x0 }
  - { offsetInCU: 0x12312, offset: 0x12312, size: 0x8, addend: 0x0, symName: _numWords, symObjAddr: 0x8203C, symBinAddr: 0x10001C07C, symSize: 0x0 }
  - { offsetInCU: 0x12327, offset: 0x12327, size: 0x8, addend: 0x0, symName: _numLines, symObjAddr: 0x82040, symBinAddr: 0x10001C080, symSize: 0x0 }
  - { offsetInCU: 0x1233E, offset: 0x1233E, size: 0x8, addend: 0x0, symName: __ZL7yy_init, symObjAddr: 0x82048, symBinAddr: 0x10001C088, symSize: 0x0 }
  - { offsetInCU: 0x12359, offset: 0x12359, size: 0x8, addend: 0x0, symName: __ZL8yy_start, symObjAddr: 0x8204C, symBinAddr: 0x10001C08C, symSize: 0x0 }
  - { offsetInCU: 0x12373, offset: 0x12373, size: 0x8, addend: 0x0, symName: __ZL15yy_buffer_stack, symObjAddr: 0x82050, symBinAddr: 0x10001C090, symSize: 0x0 }
  - { offsetInCU: 0x1243C, offset: 0x1243C, size: 0x8, addend: 0x0, symName: __ZL19yy_buffer_stack_top, symObjAddr: 0x82058, symBinAddr: 0x10001C098, symSize: 0x0 }
  - { offsetInCU: 0x12457, offset: 0x12457, size: 0x8, addend: 0x0, symName: __ZL10yy_c_buf_p, symObjAddr: 0x82060, symBinAddr: 0x10001C0A0, symSize: 0x0 }
  - { offsetInCU: 0x12472, offset: 0x12472, size: 0x8, addend: 0x0, symName: __ZL12yy_hold_char, symObjAddr: 0x82068, symBinAddr: 0x10001C0A8, symSize: 0x0 }
  - { offsetInCU: 0x1248D, offset: 0x1248D, size: 0x8, addend: 0x0, symName: __ZL5yy_ec, symObjAddr: 0x1448C, symBinAddr: 0x1000173E8, symSize: 0x0 }
  - { offsetInCU: 0x124D2, offset: 0x124D2, size: 0x8, addend: 0x0, symName: __ZL9yy_accept, symObjAddr: 0x1458C, symBinAddr: 0x1000174E8, symSize: 0x0 }
  - { offsetInCU: 0x12509, offset: 0x12509, size: 0x8, addend: 0x0, symName: __ZL23yy_last_accepting_state, symObjAddr: 0x8206C, symBinAddr: 0x10001C0AC, symSize: 0x0 }
  - { offsetInCU: 0x12530, offset: 0x12530, size: 0x8, addend: 0x0, symName: __ZL22yy_last_accepting_cpos, symObjAddr: 0x82070, symBinAddr: 0x10001C0B0, symSize: 0x0 }
  - { offsetInCU: 0x1254B, offset: 0x1254B, size: 0x8, addend: 0x0, symName: __ZL6yy_chk, symObjAddr: 0x1459E, symBinAddr: 0x1000174FA, symSize: 0x0 }
  - { offsetInCU: 0x12572, offset: 0x12572, size: 0x8, addend: 0x0, symName: __ZL7yy_base, symObjAddr: 0x145B2, symBinAddr: 0x10001750E, symSize: 0x0 }
  - { offsetInCU: 0x1258D, offset: 0x1258D, size: 0x8, addend: 0x0, symName: __ZL6yy_def, symObjAddr: 0x145C6, symBinAddr: 0x100017522, symSize: 0x0 }
  - { offsetInCU: 0x125A8, offset: 0x125A8, size: 0x8, addend: 0x0, symName: __ZL7yy_meta, symObjAddr: 0x145DA, symBinAddr: 0x100017536, symSize: 0x0 }
  - { offsetInCU: 0x125CF, offset: 0x125CF, size: 0x8, addend: 0x0, symName: __ZL6yy_nxt, symObjAddr: 0x145DE, symBinAddr: 0x10001753A, symSize: 0x0 }
  - { offsetInCU: 0x125EA, offset: 0x125EA, size: 0x8, addend: 0x0, symName: __ZL10yy_n_chars, symObjAddr: 0x82078, symBinAddr: 0x10001C0B8, symSize: 0x0 }
  - { offsetInCU: 0x12605, offset: 0x12605, size: 0x8, addend: 0x0, symName: __ZL27yy_did_buffer_switch_on_eof, symObjAddr: 0x82080, symBinAddr: 0x10001C0C0, symSize: 0x0 }
  - { offsetInCU: 0x1261F, offset: 0x1261F, size: 0x8, addend: 0x0, symName: __ZL19yy_buffer_stack_max, symObjAddr: 0x82088, symBinAddr: 0x10001C0C8, symSize: 0x0 }
  - { offsetInCU: 0x128F6, offset: 0x128F6, size: 0x8, addend: 0x0, symName: __ZNSt3__16vectorINS_12basic_stringIcNS_11char_traitsIcEENS_9allocatorIcEEEENS4_IS6_EEE26__swap_out_circular_bufferERNS_14__split_bufferIS6_RS7_EE, symObjAddr: 0x10470, symBinAddr: 0x100012E50, symSize: 0x118 }
  - { offsetInCU: 0x1425F, offset: 0x1425F, size: 0x8, addend: 0x0, symName: __Z7isalphai, symObjAddr: 0xDE4, symBinAddr: 0x1000037C4, symSize: 0x28 }
  - { offsetInCU: 0x142B5, offset: 0x142B5, size: 0x8, addend: 0x0, symName: __Z7isdigiti, symObjAddr: 0xDBC, symBinAddr: 0x10000379C, symSize: 0x28 }
  - { offsetInCU: 0x14B59, offset: 0x14B59, size: 0x8, addend: 0x0, symName: __ZNSt3__16vectorINS_12basic_stringIcNS_11char_traitsIcEENS_9allocatorIcEEEENS4_IS6_EEEC1B7v160006Ev, symObjAddr: 0x0, symBinAddr: 0x1000029E0, symSize: 0x2C }
  - { offsetInCU: 0x14B83, offset: 0x14B83, size: 0x8, addend: 0x0, symName: __ZNSt3__16vectorINS_12basic_stringIcNS_11char_traitsIcEENS_9allocatorIcEEEENS4_IS6_EEED1B7v160006Ev, symObjAddr: 0x2C, symBinAddr: 0x100002A0C, symSize: 0x2C }
  - { offsetInCU: 0x14BAC, offset: 0x14BAC, size: 0x8, addend: 0x0, symName: __Z8tokenizeRKNSt3__112basic_stringIcNS_11char_traitsIcEENS_9allocatorIcEEEE, symObjAddr: 0x58, symBinAddr: 0x100002A38, symSize: 0x414 }
  - { offsetInCU: 0x14C4E, offset: 0x14C4E, size: 0x8, addend: 0x0, symName: __ZNSt3__15dequeINS0_I5TokenNS_9allocatorIS1_EEEENS2_IS4_EEEC1B7v160006Ev, symObjAddr: 0x46C, symBinAddr: 0x100002E4C, symSize: 0x2C }
  - { offsetInCU: 0x14D4F, offset: 0x14D4F, size: 0x8, addend: 0x0, symName: __ZNSt3__119basic_istringstreamIcNS_11char_traitsIcEENS_9allocatorIcEEEC1B7v160006ERKNS_12basic_stringIcS2_S4_EEj, symObjAddr: 0x498, symBinAddr: 0x100002E78, symSize: 0xFC }
  - { offsetInCU: 0x14D97, offset: 0x14D97, size: 0x8, addend: 0x0, symName: __ZNSt3__112basic_stringIcNS_11char_traitsIcEENS_9allocatorIcEEEC1B7v160006Ev, symObjAddr: 0x594, symBinAddr: 0x100002F74, symSize: 0x2C }
  - { offsetInCU: 0x14DC1, offset: 0x14DC1, size: 0x8, addend: 0x0, symName: __ZNKSt3__19basic_iosIcNS_11char_traitsIcEEEcvbB7v160006Ev, symObjAddr: 0x7F8, symBinAddr: 0x1000031D8, symSize: 0x2C }
  - { offsetInCU: 0x14DE7, offset: 0x14DE7, size: 0x8, addend: 0x0, symName: __ZNSt3__15dequeI5TokenNS_9allocatorIS1_EEEC1B7v160006Ev, symObjAddr: 0x824, symBinAddr: 0x100003204, symSize: 0x2C }
  - { offsetInCU: 0x14E16, offset: 0x14E16, size: 0x8, addend: 0x0, symName: __ZNSt3__112basic_stringIcNS_11char_traitsIcEENS_9allocatorIcEEEC1B7v160006IDnEEPKc, symObjAddr: 0xB68, symBinAddr: 0x100003548, symSize: 0x34 }
  - { offsetInCU: 0x14E54, offset: 0x14E54, size: 0x8, addend: 0x0, symName: __ZNSt3__112basic_stringIcNS_11char_traitsIcEENS_9allocatorIcEEEaSB7v160006EPKc, symObjAddr: 0xC48, symBinAddr: 0x100003628, symSize: 0x2C }
  - { offsetInCU: 0x14E89, offset: 0x14E89, size: 0x8, addend: 0x0, symName: __ZNSt3__112basic_stringIcNS_11char_traitsIcEENS_9allocatorIcEEE5beginB7v160006Ev, symObjAddr: 0xD1C, symBinAddr: 0x1000036FC, symSize: 0x4C }
  - { offsetInCU: 0x14EAF, offset: 0x14EAF, size: 0x8, addend: 0x0, symName: __ZNSt3__112basic_stringIcNS_11char_traitsIcEENS_9allocatorIcEEE3endB7v160006Ev, symObjAddr: 0xD68, symBinAddr: 0x100003748, symSize: 0x54 }
  - { offsetInCU: 0x14ED5, offset: 0x14ED5, size: 0x8, addend: 0x0, symName: __ZNSt3__112basic_stringIcNS_11char_traitsIcEENS_9allocatorIcEEEixB7v160006Em, symObjAddr: 0xE0C, symBinAddr: 0x1000037EC, symSize: 0x30 }
  - { offsetInCU: 0x14F0A, offset: 0x14F0A, size: 0x8, addend: 0x0, symName: __ZNSt3__15dequeI5TokenNS_9allocatorIS1_EEE12emplace_backIJRNS_12basic_stringIcNS_11char_traitsIcEENS2_IcEEEESB_EEEvDpOT_, symObjAddr: 0xE3C, symBinAddr: 0x10000381C, symSize: 0xA8 }
  - { offsetInCU: 0x14F6F, offset: 0x14F6F, size: 0x8, addend: 0x0, symName: __ZNSt3__15dequeINS0_I5TokenNS_9allocatorIS1_EEEENS2_IS4_EEE9push_backERKS4_, symObjAddr: 0xEE4, symBinAddr: 0x1000038C4, symSize: 0xA0 }
  - { offsetInCU: 0x14FBA, offset: 0x14FBA, size: 0x8, addend: 0x0, symName: __ZNSt3__119basic_istringstreamIcNS_11char_traitsIcEENS_9allocatorIcEEED1Ev, symObjAddr: 0xF84, symBinAddr: 0x100003964, symSize: 0x40 }
  - { offsetInCU: 0x14FE7, offset: 0x14FE7, size: 0x8, addend: 0x0, symName: __ZNSt3__15dequeI5TokenNS_9allocatorIS1_EEED1B7v160006Ev, symObjAddr: 0xFC4, symBinAddr: 0x1000039A4, symSize: 0x2C }
  - { offsetInCU: 0x15011, offset: 0x15011, size: 0x8, addend: 0x0, symName: __ZNSt3__15dequeINS0_I5TokenNS_9allocatorIS1_EEEENS2_IS4_EEED1B7v160006Ev, symObjAddr: 0xFF0, symBinAddr: 0x1000039D0, symSize: 0x2C }
  - { offsetInCU: 0x1503A, offset: 0x1503A, size: 0x8, addend: 0x0, symName: __Z7compileNSt3__15dequeINS0_I5TokenNS_9allocatorIS1_EEEENS2_IS4_EEEE, symObjAddr: 0x101C, symBinAddr: 0x1000039FC, symSize: 0x7A8 }
  - { offsetInCU: 0x151A1, offset: 0x151A1, size: 0x8, addend: 0x0, symName: __ZNKSt3__15dequeINS0_I5TokenNS_9allocatorIS1_EEEENS2_IS4_EEE5emptyB7v160006Ev, symObjAddr: 0x17C4, symBinAddr: 0x1000041A4, symSize: 0x30 }
  - { offsetInCU: 0x151C7, offset: 0x151C7, size: 0x8, addend: 0x0, symName: __ZNSt3__15dequeINS0_I5TokenNS_9allocatorIS1_EEEENS2_IS4_EEE5frontEv, symObjAddr: 0x17F4, symBinAddr: 0x1000041D4, symSize: 0x58 }
  - { offsetInCU: 0x151EF, offset: 0x151EF, size: 0x8, addend: 0x0, symName: __ZNSt3__15dequeI5TokenNS_9allocatorIS1_EEEC1ERKS4_, symObjAddr: 0x184C, symBinAddr: 0x10000422C, symSize: 0x34 }
  - { offsetInCU: 0x1522A, offset: 0x1522A, size: 0x8, addend: 0x0, symName: __ZNKSt3__15dequeI5TokenNS_9allocatorIS1_EEE5emptyB7v160006Ev, symObjAddr: 0x1880, symBinAddr: 0x100004260, symSize: 0x30 }
  - { offsetInCU: 0x15250, offset: 0x15250, size: 0x8, addend: 0x0, symName: __ZNSt3__15dequeI5TokenNS_9allocatorIS1_EEE5frontEv, symObjAddr: 0x18B0, symBinAddr: 0x100004290, symSize: 0x58 }
  - { offsetInCU: 0x15278, offset: 0x15278, size: 0x8, addend: 0x0, symName: __ZNSt3__15dequeI5TokenNS_9allocatorIS1_EEE9pop_frontEv, symObjAddr: 0x1908, symBinAddr: 0x1000042E8, symSize: 0xB4 }
  - { offsetInCU: 0x152AF, offset: 0x152AF, size: 0x8, addend: 0x0, symName: __ZN5TokenC1ERKS_, symObjAddr: 0x19BC, symBinAddr: 0x10000439C, symSize: 0x34 }
  - { offsetInCU: 0x152E4, offset: 0x152E4, size: 0x8, addend: 0x0, symName: __ZNSt3__112basic_stringIcNS_11char_traitsIcEENS_9allocatorIcEEEpLB7v160006EPKc, symObjAddr: 0x19F0, symBinAddr: 0x1000043D0, symSize: 0x2C }
  - { offsetInCU: 0x15319, offset: 0x15319, size: 0x8, addend: 0x0, symName: __ZNSt3__112basic_stringIcNS_11char_traitsIcEENS_9allocatorIcEEEpLB7v160006ERKS5_, symObjAddr: 0x1A1C, symBinAddr: 0x1000043FC, symSize: 0x2C }
  - { offsetInCU: 0x1534E, offset: 0x1534E, size: 0x8, addend: 0x0, symName: __ZNSt3__16vectorINS_12basic_stringIcNS_11char_traitsIcEENS_9allocatorIcEEEENS4_IS6_EEE5beginB7v160006Ev, symObjAddr: 0x1ABC, symBinAddr: 0x10000449C, symSize: 0x30 }
  - { offsetInCU: 0x15376, offset: 0x15376, size: 0x8, addend: 0x0, symName: __ZNSt3__16vectorINS_12basic_stringIcNS_11char_traitsIcEENS_9allocatorIcEEEENS4_IS6_EEE3endB7v160006Ev, symObjAddr: 0x1AEC, symBinAddr: 0x1000044CC, symSize: 0x30 }
  - { offsetInCU: 0x1539E, offset: 0x1539E, size: 0x8, addend: 0x0, symName: __ZN5TokenD1Ev, symObjAddr: 0x1B8C, symBinAddr: 0x10000456C, symSize: 0x2C }
  - { offsetInCU: 0x153CA, offset: 0x153CA, size: 0x8, addend: 0x0, symName: __ZNSt3__16vectorINS_12basic_stringIcNS_11char_traitsIcEENS_9allocatorIcEEEENS4_IS6_EEE9push_backB7v160006ERKS6_, symObjAddr: 0x1BEC, symBinAddr: 0x1000045CC, symSize: 0x6C }
  - { offsetInCU: 0x15400, offset: 0x15400, size: 0x8, addend: 0x0, symName: __Z4evalNSt3__15dequeI5TokenNS_9allocatorIS1_EEEE, symObjAddr: 0x1C58, symBinAddr: 0x100004638, symSize: 0x4D4 }
  - { offsetInCU: 0x15452, offset: 0x15452, size: 0x8, addend: 0x0, symName: __ZNSt3__15dequeINS0_I5TokenNS_9allocatorIS1_EEEENS2_IS4_EEE9pop_frontEv, symObjAddr: 0x212C, symBinAddr: 0x100004B0C, symSize: 0xB4 }
  - { offsetInCU: 0x15488, offset: 0x15488, size: 0x8, addend: 0x0, symName: __Z21isValidLeftExpressionRKNSt3__15dequeI5TokenNS_9allocatorIS1_EEEE, symObjAddr: 0x21E0, symBinAddr: 0x100004BC0, symSize: 0x228 }
  - { offsetInCU: 0x154D0, offset: 0x154D0, size: 0x8, addend: 0x0, symName: __Z9pushToken5Token, symObjAddr: 0x2408, symBinAddr: 0x100004DE8, symSize: 0x268 }
  - { offsetInCU: 0x15555, offset: 0x15555, size: 0x8, addend: 0x0, symName: __ZNKSt3__15dequeI5TokenNS_9allocatorIS1_EEE5frontEv, symObjAddr: 0x26F4, symBinAddr: 0x1000050D4, symSize: 0x58 }
  - { offsetInCU: 0x1557D, offset: 0x1557D, size: 0x8, addend: 0x0, symName: __ZNKSt3__15dequeI5TokenNS_9allocatorIS1_EEE4sizeB7v160006Ev, symObjAddr: 0x274C, symBinAddr: 0x10000512C, symSize: 0x28 }
  - { offsetInCU: 0x155A3, offset: 0x155A3, size: 0x8, addend: 0x0, symName: __ZNKSt3__15dequeI5TokenNS_9allocatorIS1_EEEixEm, symObjAddr: 0x2774, symBinAddr: 0x100005154, symSize: 0x64 }
  - { offsetInCU: 0x155E9, offset: 0x155E9, size: 0x8, addend: 0x0, symName: __ZNKSt3__15dequeI5TokenNS_9allocatorIS1_EEE4backEv, symObjAddr: 0x27D8, symBinAddr: 0x1000051B8, symSize: 0x70 }
  - { offsetInCU: 0x1561F, offset: 0x1561F, size: 0x8, addend: 0x0, symName: __Z11splitStringRKNSt3__112basic_stringIcNS_11char_traitsIcEENS_9allocatorIcEEEEc, symObjAddr: 0x2848, symBinAddr: 0x100005228, symSize: 0x16C }
  - { offsetInCU: 0x156B8, offset: 0x156B8, size: 0x8, addend: 0x0, symName: __ZNKSt3__112basic_stringIcNS_11char_traitsIcEENS_9allocatorIcEEE5beginB7v160006Ev, symObjAddr: 0x29B4, symBinAddr: 0x100005394, symSize: 0x4C }
  - { offsetInCU: 0x156DE, offset: 0x156DE, size: 0x8, addend: 0x0, symName: __ZNKSt3__112basic_stringIcNS_11char_traitsIcEENS_9allocatorIcEEE3endB7v160006Ev, symObjAddr: 0x2A00, symBinAddr: 0x1000053E0, symSize: 0x54 }
  - { offsetInCU: 0x15704, offset: 0x15704, size: 0x8, addend: 0x0, symName: __ZNKSt3__111__wrap_iterIPKcEdeB7v160006Ev, symObjAddr: 0x2A88, symBinAddr: 0x100005468, symSize: 0x18 }
  - { offsetInCU: 0x1572A, offset: 0x1572A, size: 0x8, addend: 0x0, symName: __ZNSt3__112basic_stringIcNS_11char_traitsIcEENS_9allocatorIcEEE5clearB7v160006Ev, symObjAddr: 0x2AA0, symBinAddr: 0x100005480, symSize: 0x88 }
  - { offsetInCU: 0x15752, offset: 0x15752, size: 0x8, addend: 0x0, symName: __ZNSt3__112basic_stringIcNS_11char_traitsIcEENS_9allocatorIcEEEpLB7v160006Ec, symObjAddr: 0x2B28, symBinAddr: 0x100005508, symSize: 0x34 }
  - { offsetInCU: 0x15787, offset: 0x15787, size: 0x8, addend: 0x0, symName: __ZNSt3__111__wrap_iterIPKcEppB7v160006Ev, symObjAddr: 0x2B5C, symBinAddr: 0x10000553C, symSize: 0x20 }
  - { offsetInCU: 0x157AD, offset: 0x157AD, size: 0x8, addend: 0x0, symName: __ZNKSt3__112basic_stringIcNS_11char_traitsIcEENS_9allocatorIcEEE5emptyB7v160006Ev, symObjAddr: 0x2B7C, symBinAddr: 0x10000555C, symSize: 0x30 }
  - { offsetInCU: 0x157D2, offset: 0x157D2, size: 0x8, addend: 0x0, symName: __Z11printTokensRKNSt3__15dequeINS0_I5TokenNS_9allocatorIS1_EEEENS2_IS4_EEEE, symObjAddr: 0x2BAC, symBinAddr: 0x10000558C, symSize: 0x128 }
  - { offsetInCU: 0x158A1, offset: 0x158A1, size: 0x8, addend: 0x0, symName: __ZNKSt3__15dequeINS0_I5TokenNS_9allocatorIS1_EEEENS2_IS4_EEE5beginB7v160006Ev, symObjAddr: 0x2CD4, symBinAddr: 0x1000056B4, symSize: 0xB0 }
  - { offsetInCU: 0x158D6, offset: 0x158D6, size: 0x8, addend: 0x0, symName: __ZNKSt3__15dequeINS0_I5TokenNS_9allocatorIS1_EEEENS2_IS4_EEE3endB7v160006Ev, symObjAddr: 0x2D84, symBinAddr: 0x100005764, symSize: 0xC4 }
  - { offsetInCU: 0x1591A, offset: 0x1591A, size: 0x8, addend: 0x0, symName: __ZNKSt3__116__deque_iteratorINS_5dequeI5TokenNS_9allocatorIS2_EEEEPKS5_RS6_PKS7_lLl85EEdeB7v160006Ev, symObjAddr: 0x2E7C, symBinAddr: 0x10000585C, symSize: 0x18 }
  - { offsetInCU: 0x15940, offset: 0x15940, size: 0x8, addend: 0x0, symName: __ZNKSt3__15dequeI5TokenNS_9allocatorIS1_EEE5beginB7v160006Ev, symObjAddr: 0x2E94, symBinAddr: 0x100005874, symSize: 0xB0 }
  - { offsetInCU: 0x15975, offset: 0x15975, size: 0x8, addend: 0x0, symName: __ZNKSt3__15dequeI5TokenNS_9allocatorIS1_EEE3endB7v160006Ev, symObjAddr: 0x2F44, symBinAddr: 0x100005924, symSize: 0xC4 }
  - { offsetInCU: 0x159B9, offset: 0x159B9, size: 0x8, addend: 0x0, symName: __ZNKSt3__116__deque_iteratorI5TokenPKS1_RS2_PKS3_lLl85EEdeB7v160006Ev, symObjAddr: 0x303C, symBinAddr: 0x100005A1C, symSize: 0x18 }
  - { offsetInCU: 0x159DF, offset: 0x159DF, size: 0x8, addend: 0x0, symName: __ZNSt3__113basic_ostreamIcNS_11char_traitsIcEEElsB7v160006EPFRS3_S4_E, symObjAddr: 0x30E8, symBinAddr: 0x100005AC8, symSize: 0x2C }
  - { offsetInCU: 0x15A13, offset: 0x15A13, size: 0x8, addend: 0x0, symName: __ZNSt3__116__deque_iteratorI5TokenPKS1_RS2_PKS3_lLl85EEppB7v160006Ev, symObjAddr: 0x316C, symBinAddr: 0x100005B4C, symSize: 0x70 }
  - { offsetInCU: 0x15A39, offset: 0x15A39, size: 0x8, addend: 0x0, symName: __ZNSt3__116__deque_iteratorINS_5dequeI5TokenNS_9allocatorIS2_EEEEPKS5_RS6_PKS7_lLl85EEppB7v160006Ev, symObjAddr: 0x31DC, symBinAddr: 0x100005BBC, symSize: 0x70 }
  - { offsetInCU: 0x15A5E, offset: 0x15A5E, size: 0x8, addend: 0x0, symName: __Z9printLineRKNSt3__15dequeI5TokenNS_9allocatorIS1_EEEE, symObjAddr: 0x324C, symBinAddr: 0x100005C2C, symSize: 0xCC }
  - { offsetInCU: 0x15ADA, offset: 0x15ADA, size: 0x8, addend: 0x0, symName: __Z5yylexv, symObjAddr: 0x3318, symBinAddr: 0x100005CF8, symSize: 0x710 }
  - { offsetInCU: 0x15BB8, offset: 0x15BB8, size: 0x8, addend: 0x0, symName: __ZL21yyensure_buffer_stackv, symObjAddr: 0x3A44, symBinAddr: 0x100006424, symSize: 0x14C }
  - { offsetInCU: 0x15BFF, offset: 0x15BFF, size: 0x8, addend: 0x0, symName: __Z16yy_create_bufferP7__sFILEi, symObjAddr: 0x3B90, symBinAddr: 0x100006570, symSize: 0xB8 }
  - { offsetInCU: 0x15C4C, offset: 0x15C4C, size: 0x8, addend: 0x0, symName: __ZL20yy_load_buffer_statev, symObjAddr: 0x3C48, symBinAddr: 0x100006628, symSize: 0x6C }
  - { offsetInCU: 0x15C67, offset: 0x15C67, size: 0x8, addend: 0x0, symName: __ZL21yy_get_previous_statev, symObjAddr: 0x3CB4, symBinAddr: 0x100006694, symSize: 0x198 }
  - { offsetInCU: 0x15CC2, offset: 0x15CC2, size: 0x8, addend: 0x0, symName: __ZL16yy_try_NUL_transi, symObjAddr: 0x3E4C, symBinAddr: 0x10000682C, symSize: 0x158 }
  - { offsetInCU: 0x15D1E, offset: 0x15D1E, size: 0x8, addend: 0x0, symName: __ZL18yy_get_next_bufferv, symObjAddr: 0x3FA4, symBinAddr: 0x100006984, symSize: 0x7A4 }
  - { offsetInCU: 0x15E38, offset: 0x15E38, size: 0x8, addend: 0x0, symName: __ZL14yy_fatal_errorPKc, symObjAddr: 0x4748, symBinAddr: 0x100007128, symSize: 0x3C }
  - { offsetInCU: 0x15E62, offset: 0x15E62, size: 0x8, addend: 0x0, symName: __Z9yyrestartP7__sFILE, symObjAddr: 0x4784, symBinAddr: 0x100007164, symSize: 0xEC }
  - { offsetInCU: 0x15E8D, offset: 0x15E8D, size: 0x8, addend: 0x0, symName: __ZL14yy_init_bufferP15yy_buffer_stateP7__sFILE, symObjAddr: 0x4870, symBinAddr: 0x100007250, symSize: 0x124 }
  - { offsetInCU: 0x15ED5, offset: 0x15ED5, size: 0x8, addend: 0x0, symName: __Z19yy_switch_to_bufferP15yy_buffer_state, symObjAddr: 0x4994, symBinAddr: 0x100007374, symSize: 0x148 }
  - { offsetInCU: 0x15EFF, offset: 0x15EFF, size: 0x8, addend: 0x0, symName: __Z7yyallocm, symObjAddr: 0x4ADC, symBinAddr: 0x1000074BC, symSize: 0x24 }
  - { offsetInCU: 0x15F2D, offset: 0x15F2D, size: 0x8, addend: 0x0, symName: __Z16yy_delete_bufferP15yy_buffer_state, symObjAddr: 0x4B00, symBinAddr: 0x1000074E0, symSize: 0xE4 }
  - { offsetInCU: 0x15F57, offset: 0x15F57, size: 0x8, addend: 0x0, symName: __Z6yyfreePv, symObjAddr: 0x4BE4, symBinAddr: 0x1000075C4, symSize: 0x24 }
  - { offsetInCU: 0x15F81, offset: 0x15F81, size: 0x8, addend: 0x0, symName: __Z15yy_flush_bufferP15yy_buffer_state, symObjAddr: 0x4C08, symBinAddr: 0x1000075E8, symSize: 0xE0 }
  - { offsetInCU: 0x15FAB, offset: 0x15FAB, size: 0x8, addend: 0x0, symName: __Z19yypush_buffer_stateP15yy_buffer_state, symObjAddr: 0x4CE8, symBinAddr: 0x1000076C8, symSize: 0x16C }
  - { offsetInCU: 0x15FD6, offset: 0x15FD6, size: 0x8, addend: 0x0, symName: __Z18yypop_buffer_statev, symObjAddr: 0x4E54, symBinAddr: 0x100007834, symSize: 0x160 }
  - { offsetInCU: 0x15FF0, offset: 0x15FF0, size: 0x8, addend: 0x0, symName: __Z14yy_scan_bufferPcm, symObjAddr: 0x4FB4, symBinAddr: 0x100007994, symSize: 0x128 }
  - { offsetInCU: 0x1603C, offset: 0x1603C, size: 0x8, addend: 0x0, symName: __Z14yy_scan_stringPKc, symObjAddr: 0x50DC, symBinAddr: 0x100007ABC, symSize: 0x3C }
  - { offsetInCU: 0x1606A, offset: 0x1606A, size: 0x8, addend: 0x0, symName: __Z13yy_scan_bytesPKcm, symObjAddr: 0x5118, symBinAddr: 0x100007AF8, symSize: 0x110 }
  - { offsetInCU: 0x160E4, offset: 0x160E4, size: 0x8, addend: 0x0, symName: __Z12yyget_linenov, symObjAddr: 0x5228, symBinAddr: 0x100007C08, symSize: 0xC }
  - { offsetInCU: 0x16103, offset: 0x16103, size: 0x8, addend: 0x0, symName: __Z8yyget_inv, symObjAddr: 0x5234, symBinAddr: 0x100007C14, symSize: 0xC }
  - { offsetInCU: 0x16122, offset: 0x16122, size: 0x8, addend: 0x0, symName: __Z9yyget_outv, symObjAddr: 0x5240, symBinAddr: 0x100007C20, symSize: 0xC }
  - { offsetInCU: 0x16141, offset: 0x16141, size: 0x8, addend: 0x0, symName: __Z10yyget_lengv, symObjAddr: 0x524C, symBinAddr: 0x100007C2C, symSize: 0xC }
  - { offsetInCU: 0x16160, offset: 0x16160, size: 0x8, addend: 0x0, symName: __Z10yyget_textv, symObjAddr: 0x5258, symBinAddr: 0x100007C38, symSize: 0xC }
  - { offsetInCU: 0x1617F, offset: 0x1617F, size: 0x8, addend: 0x0, symName: __Z12yyset_linenoi, symObjAddr: 0x5264, symBinAddr: 0x100007C44, symSize: 0x1C }
  - { offsetInCU: 0x161AA, offset: 0x161AA, size: 0x8, addend: 0x0, symName: __Z8yyset_inP7__sFILE, symObjAddr: 0x5280, symBinAddr: 0x100007C60, symSize: 0x1C }
  - { offsetInCU: 0x161D5, offset: 0x161D5, size: 0x8, addend: 0x0, symName: __Z9yyset_outP7__sFILE, symObjAddr: 0x529C, symBinAddr: 0x100007C7C, symSize: 0x1C }
  - { offsetInCU: 0x16200, offset: 0x16200, size: 0x8, addend: 0x0, symName: __Z11yyget_debugv, symObjAddr: 0x52B8, symBinAddr: 0x100007C98, symSize: 0xC }
  - { offsetInCU: 0x1621F, offset: 0x1621F, size: 0x8, addend: 0x0, symName: __Z11yyset_debugi, symObjAddr: 0x52C4, symBinAddr: 0x100007CA4, symSize: 0x1C }
  - { offsetInCU: 0x1624A, offset: 0x1624A, size: 0x8, addend: 0x0, symName: __Z13yylex_destroyv, symObjAddr: 0x52E0, symBinAddr: 0x100007CC0, symSize: 0xF8 }
  - { offsetInCU: 0x16269, offset: 0x16269, size: 0x8, addend: 0x0, symName: __ZL15yy_init_globalsv, symObjAddr: 0x53D8, symBinAddr: 0x100007DB8, symSize: 0x48 }
  - { offsetInCU: 0x16287, offset: 0x16287, size: 0x8, addend: 0x0, symName: __Z9yyreallocPvm, symObjAddr: 0x5420, symBinAddr: 0x100007E00, symSize: 0x2C }
  - { offsetInCU: 0x162C5, offset: 0x162C5, size: 0x8, addend: 0x0, symName: _main, symObjAddr: 0x544C, symBinAddr: 0x100007E2C, symSize: 0x34C }
  - { offsetInCU: 0x16369, offset: 0x16369, size: 0x8, addend: 0x0, symName: __ZNSt3__114basic_ifstreamIcNS_11char_traitsIcEEEC1ERKNS_12basic_stringIcS2_NS_9allocatorIcEEEEj, symObjAddr: 0x5798, symBinAddr: 0x100008178, symSize: 0x16C }
  - { offsetInCU: 0x163B3, offset: 0x163B3, size: 0x8, addend: 0x0, symName: __ZNKSt3__114basic_ifstreamIcNS_11char_traitsIcEEE7is_openEv, symObjAddr: 0x5904, symBinAddr: 0x1000082E4, symSize: 0x2C }
  - { offsetInCU: 0x1640F, offset: 0x1640F, size: 0x8, addend: 0x0, symName: __ZNSt3__118basic_stringstreamIcNS_11char_traitsIcEENS_9allocatorIcEEEC1B7v160006Ev, symObjAddr: 0x5930, symBinAddr: 0x100008310, symSize: 0x104 }
  - { offsetInCU: 0x16439, offset: 0x16439, size: 0x8, addend: 0x0, symName: __ZNKSt3__114basic_ifstreamIcNS_11char_traitsIcEEE5rdbufEv, symObjAddr: 0x5A34, symBinAddr: 0x100008414, symSize: 0x18 }
  - { offsetInCU: 0x16461, offset: 0x16461, size: 0x8, addend: 0x0, symName: __ZNKSt3__118basic_stringstreamIcNS_11char_traitsIcEENS_9allocatorIcEEE3strB7v160006Ev, symObjAddr: 0x5A4C, symBinAddr: 0x10000842C, symSize: 0x30 }
  - { offsetInCU: 0x16487, offset: 0x16487, size: 0x8, addend: 0x0, symName: __ZNSt3__112basic_stringIcNS_11char_traitsIcEENS_9allocatorIcEEE5eraseB7v160006ENS_11__wrap_iterIPKcEES9_, symObjAddr: 0x5A7C, symBinAddr: 0x10000845C, symSize: 0x98 }
  - { offsetInCU: 0x164F5, offset: 0x164F5, size: 0x8, addend: 0x0, symName: __ZNSt3__111__wrap_iterIPKcEC1B7v160006IPcEERKNS0_IT_EEPNS_9enable_ifIXsr14is_convertibleIS6_S2_EE5valueEvE4typeE, symObjAddr: 0x5C1C, symBinAddr: 0x1000085FC, symSize: 0x3C }
  - { offsetInCU: 0x16540, offset: 0x16540, size: 0x8, addend: 0x0, symName: __ZNSt3__114basic_ifstreamIcNS_11char_traitsIcEEE5closeEv, symObjAddr: 0x5C58, symBinAddr: 0x100008638, symSize: 0x58 }
  - { offsetInCU: 0x16568, offset: 0x16568, size: 0x8, addend: 0x0, symName: __ZNSt3__15dequeINS0_I5TokenNS_9allocatorIS1_EEEENS2_IS4_EEEC1ERKS6_, symObjAddr: 0x5CB0, symBinAddr: 0x100008690, symSize: 0x34 }
  - { offsetInCU: 0x165A8, offset: 0x165A8, size: 0x8, addend: 0x0, symName: __ZNSt3__118basic_stringstreamIcNS_11char_traitsIcEENS_9allocatorIcEEED1Ev, symObjAddr: 0x5CE4, symBinAddr: 0x1000086C4, symSize: 0x40 }
  - { offsetInCU: 0x165DA, offset: 0x165DA, size: 0x8, addend: 0x0, symName: __ZNSt3__114basic_ifstreamIcNS_11char_traitsIcEEED1Ev, symObjAddr: 0x5D24, symBinAddr: 0x100008704, symSize: 0x40 }
  - { offsetInCU: 0x16606, offset: 0x16606, size: 0x8, addend: 0x0, symName: __Z9__isctypeim, symObjAddr: 0x5D64, symBinAddr: 0x100008744, symSize: 0x80 }
  - { offsetInCU: 0x16640, offset: 0x16640, size: 0x8, addend: 0x0, symName: __Z8__istypeim, symObjAddr: 0x5DE4, symBinAddr: 0x1000087C4, symSize: 0x8C }
  - { offsetInCU: 0x1667A, offset: 0x1667A, size: 0x8, addend: 0x0, symName: __Z7isasciii, symObjAddr: 0x5E70, symBinAddr: 0x100008850, symSize: 0x24 }
  - { offsetInCU: 0x166A7, offset: 0x166A7, size: 0x8, addend: 0x0, symName: __ZNSt3__119basic_istringstreamIcNS_11char_traitsIcEENS_9allocatorIcEEED2Ev, symObjAddr: 0x5E94, symBinAddr: 0x100008874, symSize: 0x64 }
  - { offsetInCU: 0x166E1, offset: 0x166E1, size: 0x8, addend: 0x0, symName: __ZTv0_n24_NSt3__119basic_istringstreamIcNS_11char_traitsIcEENS_9allocatorIcEEED1Ev, symObjAddr: 0x5EF8, symBinAddr: 0x1000088D8, symSize: 0x28 }
  - { offsetInCU: 0x166FD, offset: 0x166FD, size: 0x8, addend: 0x0, symName: __ZNSt3__115basic_stringbufIcNS_11char_traitsIcEENS_9allocatorIcEEED1Ev, symObjAddr: 0x5F20, symBinAddr: 0x100008900, symSize: 0x2C }
  - { offsetInCU: 0x1672A, offset: 0x1672A, size: 0x8, addend: 0x0, symName: __ZNSt3__115basic_stringbufIcNS_11char_traitsIcEENS_9allocatorIcEEED2Ev, symObjAddr: 0x5F4C, symBinAddr: 0x10000892C, symSize: 0x48 }
  - { offsetInCU: 0x16757, offset: 0x16757, size: 0x8, addend: 0x0, symName: __ZN5TokenC2ERKS_, symObjAddr: 0x5F94, symBinAddr: 0x100008974, symSize: 0x70 }
  - { offsetInCU: 0x1678C, offset: 0x1678C, size: 0x8, addend: 0x0, symName: __ZNKSt3__111__wrap_iterIPNS_12basic_stringIcNS_11char_traitsIcEENS_9allocatorIcEEEEE4baseB7v160006Ev, symObjAddr: 0x604C, symBinAddr: 0x100008A2C, symSize: 0x18 }
  - { offsetInCU: 0x167B2, offset: 0x167B2, size: 0x8, addend: 0x0, symName: __ZN5TokenD2Ev, symObjAddr: 0x6064, symBinAddr: 0x100008A44, symSize: 0x38 }
  - { offsetInCU: 0x167DE, offset: 0x167DE, size: 0x8, addend: 0x0, symName: __ZNKSt3__111__wrap_iterIPKcE4baseB7v160006Ev, symObjAddr: 0x60E4, symBinAddr: 0x100008AC4, symSize: 0x18 }
  - { offsetInCU: 0x16804, offset: 0x16804, size: 0x8, addend: 0x0, symName: __ZNSt3__111__wrap_iterIPKcEC2B7v160006IPcEERKNS0_IT_EEPNS_9enable_ifIXsr14is_convertibleIS6_S2_EE5valueEvE4typeE, symObjAddr: 0x60FC, symBinAddr: 0x100008ADC, symSize: 0x40 }
  - { offsetInCU: 0x1684F, offset: 0x1684F, size: 0x8, addend: 0x0, symName: __ZNKSt3__111__wrap_iterIPcE4baseB7v160006Ev, symObjAddr: 0x613C, symBinAddr: 0x100008B1C, symSize: 0x18 }
  - { offsetInCU: 0x16875, offset: 0x16875, size: 0x8, addend: 0x0, symName: __ZNSt3__118basic_stringstreamIcNS_11char_traitsIcEENS_9allocatorIcEEED2Ev, symObjAddr: 0x6154, symBinAddr: 0x100008B34, symSize: 0x6C }
  - { offsetInCU: 0x168AF, offset: 0x168AF, size: 0x8, addend: 0x0, symName: __ZThn16_NSt3__118basic_stringstreamIcNS_11char_traitsIcEENS_9allocatorIcEEED1Ev, symObjAddr: 0x61C0, symBinAddr: 0x100008BA0, symSize: 0x1C }
  - { offsetInCU: 0x168C6, offset: 0x168C6, size: 0x8, addend: 0x0, symName: __ZTv0_n24_NSt3__118basic_stringstreamIcNS_11char_traitsIcEENS_9allocatorIcEEED1Ev, symObjAddr: 0x61DC, symBinAddr: 0x100008BBC, symSize: 0x28 }
  - { offsetInCU: 0x168DD, offset: 0x168DD, size: 0x8, addend: 0x0, symName: __ZNSt3__114basic_ifstreamIcNS_11char_traitsIcEEED2Ev, symObjAddr: 0x6204, symBinAddr: 0x100008BE4, symSize: 0x64 }
  - { offsetInCU: 0x16917, offset: 0x16917, size: 0x8, addend: 0x0, symName: __ZTv0_n24_NSt3__114basic_ifstreamIcNS_11char_traitsIcEEED1Ev, symObjAddr: 0x6268, symBinAddr: 0x100008C48, symSize: 0x28 }
  - { offsetInCU: 0x1692E, offset: 0x1692E, size: 0x8, addend: 0x0, symName: __ZNSt3__112basic_stringIcNS_11char_traitsIcEENS_9allocatorIcEEEC2B7v160006Ev, symObjAddr: 0x6290, symBinAddr: 0x100008C70, symSize: 0x54 }
  - { offsetInCU: 0x1695E, offset: 0x1695E, size: 0x8, addend: 0x0, symName: __ZNSt3__117__compressed_pairINS_12basic_stringIcNS_11char_traitsIcEENS_9allocatorIcEEE5__repES5_EC1B7v160006INS_18__default_init_tagESA_EEOT_OT0_, symObjAddr: 0x62E4, symBinAddr: 0x100008CC4, symSize: 0x3C }
  - { offsetInCU: 0x169B6, offset: 0x169B6, size: 0x8, addend: 0x0, symName: __ZNSt3__112basic_stringIcNS_11char_traitsIcEENS_9allocatorIcEEE14__default_initB7v160006Ev, symObjAddr: 0x633C, symBinAddr: 0x100008D1C, symSize: 0x40 }
  - { offsetInCU: 0x169DC, offset: 0x169DC, size: 0x8, addend: 0x0, symName: __ZNSt3__117__compressed_pairINS_12basic_stringIcNS_11char_traitsIcEENS_9allocatorIcEEE5__repES5_EC2B7v160006INS_18__default_init_tagESA_EEOT_OT0_, symObjAddr: 0x637C, symBinAddr: 0x100008D5C, symSize: 0x3C }
  - { offsetInCU: 0x16A34, offset: 0x16A34, size: 0x8, addend: 0x0, symName: __ZNSt3__122__compressed_pair_elemINS_12basic_stringIcNS_11char_traitsIcEENS_9allocatorIcEEE5__repELi0ELb0EEC2B7v160006ENS_18__default_init_tagE, symObjAddr: 0x63B8, symBinAddr: 0x100008D98, symSize: 0x14 }
  - { offsetInCU: 0x16A68, offset: 0x16A68, size: 0x8, addend: 0x0, symName: __ZNSt3__122__compressed_pair_elemINS_9allocatorIcEELi1ELb1EEC2B7v160006ENS_18__default_init_tagE, symObjAddr: 0x63CC, symBinAddr: 0x100008DAC, symSize: 0x2C }
  - { offsetInCU: 0x16A9C, offset: 0x16A9C, size: 0x8, addend: 0x0, symName: __ZNSt3__19allocatorIcEC2B7v160006Ev, symObjAddr: 0x63F8, symBinAddr: 0x100008DD8, symSize: 0x2C }
  - { offsetInCU: 0x16AC6, offset: 0x16AC6, size: 0x8, addend: 0x0, symName: __ZNSt3__116__non_trivial_ifILb1ENS_9allocatorIcEEEC2B7v160006Ev, symObjAddr: 0x6424, symBinAddr: 0x100008E04, symSize: 0x14 }
  - { offsetInCU: 0x16AF0, offset: 0x16AF0, size: 0x8, addend: 0x0, symName: __ZNSt3__117__compressed_pairINS_12basic_stringIcNS_11char_traitsIcEENS_9allocatorIcEEE5__repES5_E5firstB7v160006Ev, symObjAddr: 0x6438, symBinAddr: 0x100008E18, symSize: 0x24 }
  - { offsetInCU: 0x16B16, offset: 0x16B16, size: 0x8, addend: 0x0, symName: __ZNSt3__122__compressed_pair_elemINS_12basic_stringIcNS_11char_traitsIcEENS_9allocatorIcEEE5__repELi0ELb0EE5__getB7v160006Ev, symObjAddr: 0x645C, symBinAddr: 0x100008E3C, symSize: 0x14 }
  - { offsetInCU: 0x16B3C, offset: 0x16B3C, size: 0x8, addend: 0x0, symName: __ZNSt3__112basic_stringIcNS_11char_traitsIcEENS_9allocatorIcEEE6appendB7v160006ERKS5_, symObjAddr: 0x6470, symBinAddr: 0x100008E50, symSize: 0x4C }
  - { offsetInCU: 0x16B71, offset: 0x16B71, size: 0x8, addend: 0x0, symName: __ZNKSt3__112basic_stringIcNS_11char_traitsIcEENS_9allocatorIcEEE4dataB7v160006Ev, symObjAddr: 0x64BC, symBinAddr: 0x100008E9C, symSize: 0x28 }
  - { offsetInCU: 0x16B97, offset: 0x16B97, size: 0x8, addend: 0x0, symName: __ZNKSt3__112basic_stringIcNS_11char_traitsIcEENS_9allocatorIcEEE4sizeB7v160006Ev, symObjAddr: 0x64E4, symBinAddr: 0x100008EC4, symSize: 0x54 }
  - { offsetInCU: 0x16BBD, offset: 0x16BBD, size: 0x8, addend: 0x0, symName: __ZNKSt3__112basic_stringIcNS_11char_traitsIcEENS_9allocatorIcEEE13__get_pointerB7v160006Ev, symObjAddr: 0x654C, symBinAddr: 0x100008F2C, symSize: 0x54 }
  - { offsetInCU: 0x16BE3, offset: 0x16BE3, size: 0x8, addend: 0x0, symName: __ZNKSt3__112basic_stringIcNS_11char_traitsIcEENS_9allocatorIcEEE9__is_longB7v160006Ev, symObjAddr: 0x65A0, symBinAddr: 0x100008F80, symSize: 0x38 }
  - { offsetInCU: 0x16C09, offset: 0x16C09, size: 0x8, addend: 0x0, symName: __ZNKSt3__112basic_stringIcNS_11char_traitsIcEENS_9allocatorIcEEE18__get_long_pointerB7v160006Ev, symObjAddr: 0x65D8, symBinAddr: 0x100008FB8, symSize: 0x28 }
  - { offsetInCU: 0x16C2F, offset: 0x16C2F, size: 0x8, addend: 0x0, symName: __ZNKSt3__112basic_stringIcNS_11char_traitsIcEENS_9allocatorIcEEE19__get_short_pointerB7v160006Ev, symObjAddr: 0x6600, symBinAddr: 0x100008FE0, symSize: 0x28 }
  - { offsetInCU: 0x16C55, offset: 0x16C55, size: 0x8, addend: 0x0, symName: __ZNKSt3__117__compressed_pairINS_12basic_stringIcNS_11char_traitsIcEENS_9allocatorIcEEE5__repES5_E5firstB7v160006Ev, symObjAddr: 0x6628, symBinAddr: 0x100009008, symSize: 0x24 }
  - { offsetInCU: 0x16C7B, offset: 0x16C7B, size: 0x8, addend: 0x0, symName: __ZNKSt3__122__compressed_pair_elemINS_12basic_stringIcNS_11char_traitsIcEENS_9allocatorIcEEE5__repELi0ELb0EE5__getB7v160006Ev, symObjAddr: 0x664C, symBinAddr: 0x10000902C, symSize: 0x14 }
  - { offsetInCU: 0x16CA1, offset: 0x16CA1, size: 0x8, addend: 0x0, symName: __ZNSt3__114pointer_traitsIPKcE10pointer_toB7v160006ERS1_, symObjAddr: 0x6660, symBinAddr: 0x100009040, symSize: 0x14 }
  - { offsetInCU: 0x16CC4, offset: 0x16CC4, size: 0x8, addend: 0x0, symName: __ZNKSt3__112basic_stringIcNS_11char_traitsIcEENS_9allocatorIcEEE15__get_long_sizeB7v160006Ev, symObjAddr: 0x6674, symBinAddr: 0x100009054, symSize: 0x28 }
  - { offsetInCU: 0x16CEA, offset: 0x16CEA, size: 0x8, addend: 0x0, symName: __ZNKSt3__112basic_stringIcNS_11char_traitsIcEENS_9allocatorIcEEE16__get_short_sizeB7v160006Ev, symObjAddr: 0x669C, symBinAddr: 0x10000907C, symSize: 0x34 }
  - { offsetInCU: 0x16D10, offset: 0x16D10, size: 0x8, addend: 0x0, symName: __ZNSt3__111char_traitsIcE6assignERcRKc, symObjAddr: 0x66E0, symBinAddr: 0x1000090C0, symSize: 0x24 }
  - { offsetInCU: 0x16D41, offset: 0x16D41, size: 0x8, addend: 0x0, symName: __ZNSt3__112basic_stringIcNS_11char_traitsIcEENS_9allocatorIcEEE18__get_long_pointerB7v160006Ev, symObjAddr: 0x6704, symBinAddr: 0x1000090E4, symSize: 0x28 }
  - { offsetInCU: 0x16D67, offset: 0x16D67, size: 0x8, addend: 0x0, symName: __ZNSt3__112basic_stringIcNS_11char_traitsIcEENS_9allocatorIcEEE15__set_long_sizeB7v160006Em, symObjAddr: 0x672C, symBinAddr: 0x10000910C, symSize: 0x38 }
  - { offsetInCU: 0x16D9C, offset: 0x16D9C, size: 0x8, addend: 0x0, symName: __ZNSt3__112basic_stringIcNS_11char_traitsIcEENS_9allocatorIcEEE19__get_short_pointerB7v160006Ev, symObjAddr: 0x6764, symBinAddr: 0x100009144, symSize: 0x28 }
  - { offsetInCU: 0x16DC2, offset: 0x16DC2, size: 0x8, addend: 0x0, symName: __ZNSt3__112basic_stringIcNS_11char_traitsIcEENS_9allocatorIcEEE16__set_short_sizeB7v160006Em, symObjAddr: 0x678C, symBinAddr: 0x10000916C, symSize: 0x78 }
  - { offsetInCU: 0x16DF7, offset: 0x16DF7, size: 0x8, addend: 0x0, symName: __ZNSt3__114pointer_traitsIPcE10pointer_toB7v160006ERc, symObjAddr: 0x6804, symBinAddr: 0x1000091E4, symSize: 0x14 }
  - { offsetInCU: 0x16E1A, offset: 0x16E1A, size: 0x8, addend: 0x0, symName: __ZNSt3__16vectorINS_12basic_stringIcNS_11char_traitsIcEENS_9allocatorIcEEEENS4_IS6_EEEC2B7v160006Ev, symObjAddr: 0x6818, symBinAddr: 0x1000091F8, symSize: 0x58 }
  - { offsetInCU: 0x16E4A, offset: 0x16E4A, size: 0x8, addend: 0x0, symName: __ZNSt3__117__compressed_pairIPNS_12basic_stringIcNS_11char_traitsIcEENS_9allocatorIcEEEENS4_IS6_EEEC1B7v160006IDnNS_18__default_init_tagEEEOT_OT0_, symObjAddr: 0x6870, symBinAddr: 0x100009250, symSize: 0x3C }
  - { offsetInCU: 0x16EA2, offset: 0x16EA2, size: 0x8, addend: 0x0, symName: __ZNSt3__117__compressed_pairIPNS_12basic_stringIcNS_11char_traitsIcEENS_9allocatorIcEEEENS4_IS6_EEEC2B7v160006IDnNS_18__default_init_tagEEEOT_OT0_, symObjAddr: 0x68BC, symBinAddr: 0x10000929C, symSize: 0x40 }
  - { offsetInCU: 0x16EFA, offset: 0x16EFA, size: 0x8, addend: 0x0, symName: __ZNSt3__122__compressed_pair_elemIPNS_12basic_stringIcNS_11char_traitsIcEENS_9allocatorIcEEEELi0ELb0EEC2B7v160006IDnvEEOT_, symObjAddr: 0x68FC, symBinAddr: 0x1000092DC, symSize: 0x1C }
  - { offsetInCU: 0x16F3C, offset: 0x16F3C, size: 0x8, addend: 0x0, symName: __ZNSt3__122__compressed_pair_elemINS_9allocatorINS_12basic_stringIcNS_11char_traitsIcEENS1_IcEEEEEELi1ELb1EEC2B7v160006ENS_18__default_init_tagE, symObjAddr: 0x6918, symBinAddr: 0x1000092F8, symSize: 0x2C }
  - { offsetInCU: 0x16F70, offset: 0x16F70, size: 0x8, addend: 0x0, symName: __ZNSt3__19allocatorINS_12basic_stringIcNS_11char_traitsIcEENS0_IcEEEEEC2B7v160006Ev, symObjAddr: 0x6944, symBinAddr: 0x100009324, symSize: 0x2C }
  - { offsetInCU: 0x16F9A, offset: 0x16F9A, size: 0x8, addend: 0x0, symName: __ZNSt3__116__non_trivial_ifILb1ENS_9allocatorINS_12basic_stringIcNS_11char_traitsIcEENS1_IcEEEEEEEC2B7v160006Ev, symObjAddr: 0x6970, symBinAddr: 0x100009350, symSize: 0x14 }
  - { offsetInCU: 0x16FC4, offset: 0x16FC4, size: 0x8, addend: 0x0, symName: __ZNSt3__16vectorINS_12basic_stringIcNS_11char_traitsIcEENS_9allocatorIcEEEENS4_IS6_EEED2B7v160006Ev, symObjAddr: 0x6984, symBinAddr: 0x100009364, symSize: 0x44 }
  - { offsetInCU: 0x16FEE, offset: 0x16FEE, size: 0x8, addend: 0x0, symName: __ZNSt3__16vectorINS_12basic_stringIcNS_11char_traitsIcEENS_9allocatorIcEEEENS4_IS6_EEE16__destroy_vectorC1ERS8_, symObjAddr: 0x69C8, symBinAddr: 0x1000093A8, symSize: 0x34 }
  - { offsetInCU: 0x17027, offset: 0x17027, size: 0x8, addend: 0x0, symName: __ZNSt3__16vectorINS_12basic_stringIcNS_11char_traitsIcEENS_9allocatorIcEEEENS4_IS6_EEE16__destroy_vectorclB7v160006Ev, symObjAddr: 0x69FC, symBinAddr: 0x1000093DC, symSize: 0x9C }
  - { offsetInCU: 0x1704D, offset: 0x1704D, size: 0x8, addend: 0x0, symName: __ZNSt3__16vectorINS_12basic_stringIcNS_11char_traitsIcEENS_9allocatorIcEEEENS4_IS6_EEE16__destroy_vectorC2ERS8_, symObjAddr: 0x6A98, symBinAddr: 0x100009478, symSize: 0x20 }
  - { offsetInCU: 0x17086, offset: 0x17086, size: 0x8, addend: 0x0, symName: __ZNKSt3__16vectorINS_12basic_stringIcNS_11char_traitsIcEENS_9allocatorIcEEEENS4_IS6_EEE17__annotate_deleteB7v160006Ev, symObjAddr: 0x6AB8, symBinAddr: 0x100009498, symSize: 0xD4 }
  - { offsetInCU: 0x170AC, offset: 0x170AC, size: 0x8, addend: 0x0, symName: __ZNSt3__16vectorINS_12basic_stringIcNS_11char_traitsIcEENS_9allocatorIcEEEENS4_IS6_EEE7__clearB7v160006Ev, symObjAddr: 0x6B9C, symBinAddr: 0x10000957C, symSize: 0x28 }
  - { offsetInCU: 0x170D2, offset: 0x170D2, size: 0x8, addend: 0x0, symName: __ZNSt3__116allocator_traitsINS_9allocatorINS_12basic_stringIcNS_11char_traitsIcEENS1_IcEEEEEEE10deallocateB7v160006ERS7_PS6_m, symObjAddr: 0x6BC4, symBinAddr: 0x1000095A4, symSize: 0x34 }
  - { offsetInCU: 0x17114, offset: 0x17114, size: 0x8, addend: 0x0, symName: __ZNSt3__16vectorINS_12basic_stringIcNS_11char_traitsIcEENS_9allocatorIcEEEENS4_IS6_EEE7__allocB7v160006Ev, symObjAddr: 0x6BF8, symBinAddr: 0x1000095D8, symSize: 0x28 }
  - { offsetInCU: 0x1713A, offset: 0x1713A, size: 0x8, addend: 0x0, symName: __ZNKSt3__16vectorINS_12basic_stringIcNS_11char_traitsIcEENS_9allocatorIcEEEENS4_IS6_EEE8capacityB7v160006Ev, symObjAddr: 0x6C20, symBinAddr: 0x100009600, symSize: 0x40 }
  - { offsetInCU: 0x17160, offset: 0x17160, size: 0x8, addend: 0x0, symName: __ZNKSt3__16vectorINS_12basic_stringIcNS_11char_traitsIcEENS_9allocatorIcEEEENS4_IS6_EEE31__annotate_contiguous_containerB7v160006EPKvSA_SA_SA_, symObjAddr: 0x6C60, symBinAddr: 0x100009640, symSize: 0x20 }
  - { offsetInCU: 0x171B6, offset: 0x171B6, size: 0x8, addend: 0x0, symName: __ZNKSt3__16vectorINS_12basic_stringIcNS_11char_traitsIcEENS_9allocatorIcEEEENS4_IS6_EEE4dataB7v160006Ev, symObjAddr: 0x6C80, symBinAddr: 0x100009660, symSize: 0x28 }
  - { offsetInCU: 0x171DC, offset: 0x171DC, size: 0x8, addend: 0x0, symName: __ZNKSt3__16vectorINS_12basic_stringIcNS_11char_traitsIcEENS_9allocatorIcEEEENS4_IS6_EEE4sizeB7v160006Ev, symObjAddr: 0x6CA8, symBinAddr: 0x100009688, symSize: 0x28 }
  - { offsetInCU: 0x17202, offset: 0x17202, size: 0x8, addend: 0x0, symName: __ZNSt3__16vectorINS_12basic_stringIcNS_11char_traitsIcEENS_9allocatorIcEEEENS4_IS6_EEE22__base_destruct_at_endB7v160006EPS6_, symObjAddr: 0x6CE4, symBinAddr: 0x1000096C4, symSize: 0x8C }
  - { offsetInCU: 0x17246, offset: 0x17246, size: 0x8, addend: 0x0, symName: __ZNSt3__116allocator_traitsINS_9allocatorINS_12basic_stringIcNS_11char_traitsIcEENS1_IcEEEEEEE7destroyB7v160006IS6_vEEvRS7_PT_, symObjAddr: 0x6D70, symBinAddr: 0x100009750, symSize: 0x2C }
  - { offsetInCU: 0x17283, offset: 0x17283, size: 0x8, addend: 0x0, symName: __ZNSt3__19allocatorINS_12basic_stringIcNS_11char_traitsIcEENS0_IcEEEEE7destroyB7v160006EPS5_, symObjAddr: 0x6D9C, symBinAddr: 0x10000977C, symSize: 0x28 }
  - { offsetInCU: 0x172B7, offset: 0x172B7, size: 0x8, addend: 0x0, symName: __ZNSt3__19allocatorINS_12basic_stringIcNS_11char_traitsIcEENS0_IcEEEEE10deallocateB7v160006EPS5_m, symObjAddr: 0x6DC4, symBinAddr: 0x1000097A4, symSize: 0x44 }
  - { offsetInCU: 0x172F9, offset: 0x172F9, size: 0x8, addend: 0x0, symName: __ZNSt3__117__compressed_pairIPNS_12basic_stringIcNS_11char_traitsIcEENS_9allocatorIcEEEENS4_IS6_EEE6secondB7v160006Ev, symObjAddr: 0x6E84, symBinAddr: 0x100009864, symSize: 0x24 }
  - { offsetInCU: 0x1731F, offset: 0x1731F, size: 0x8, addend: 0x0, symName: __ZNSt3__122__compressed_pair_elemINS_9allocatorINS_12basic_stringIcNS_11char_traitsIcEENS1_IcEEEEEELi1ELb1EE5__getB7v160006Ev, symObjAddr: 0x6EA8, symBinAddr: 0x100009888, symSize: 0x14 }
  - { offsetInCU: 0x17345, offset: 0x17345, size: 0x8, addend: 0x0, symName: __ZNKSt3__16vectorINS_12basic_stringIcNS_11char_traitsIcEENS_9allocatorIcEEEENS4_IS6_EEE9__end_capB7v160006Ev, symObjAddr: 0x6EBC, symBinAddr: 0x10000989C, symSize: 0x28 }
  - { offsetInCU: 0x1736B, offset: 0x1736B, size: 0x8, addend: 0x0, symName: __ZNKSt3__117__compressed_pairIPNS_12basic_stringIcNS_11char_traitsIcEENS_9allocatorIcEEEENS4_IS6_EEE5firstB7v160006Ev, symObjAddr: 0x6EE4, symBinAddr: 0x1000098C4, symSize: 0x24 }
  - { offsetInCU: 0x17391, offset: 0x17391, size: 0x8, addend: 0x0, symName: __ZNKSt3__122__compressed_pair_elemIPNS_12basic_stringIcNS_11char_traitsIcEENS_9allocatorIcEEEELi0ELb0EE5__getB7v160006Ev, symObjAddr: 0x6F08, symBinAddr: 0x1000098E8, symSize: 0x14 }
  - { offsetInCU: 0x173B7, offset: 0x173B7, size: 0x8, addend: 0x0, symName: __ZNSt3__15dequeINS0_I5TokenNS_9allocatorIS1_EEEENS2_IS4_EEEC2B7v160006Ev, symObjAddr: 0x6F1C, symBinAddr: 0x1000098FC, symSize: 0x50 }
  - { offsetInCU: 0x173E1, offset: 0x173E1, size: 0x8, addend: 0x0, symName: __ZNSt3__114__split_bufferIPNS_5dequeI5TokenNS_9allocatorIS2_EEEENS3_IS6_EEEC1Ev, symObjAddr: 0x6F6C, symBinAddr: 0x10000994C, symSize: 0x2C }
  - { offsetInCU: 0x17413, offset: 0x17413, size: 0x8, addend: 0x0, symName: __ZNSt3__117__compressed_pairImNS_9allocatorINS_5dequeI5TokenNS1_IS3_EEEEEEEC1B7v160006IiNS_18__default_init_tagEEEOT_OT0_, symObjAddr: 0x6F98, symBinAddr: 0x100009978, symSize: 0x3C }
  - { offsetInCU: 0x1746B, offset: 0x1746B, size: 0x8, addend: 0x0, symName: __ZNSt3__114__split_bufferIPNS_5dequeI5TokenNS_9allocatorIS2_EEEENS3_IS6_EEEC2Ev, symObjAddr: 0x6FD4, symBinAddr: 0x1000099B4, symSize: 0x50 }
  - { offsetInCU: 0x17497, offset: 0x17497, size: 0x8, addend: 0x0, symName: __ZNSt3__117__compressed_pairIPPNS_5dequeI5TokenNS_9allocatorIS2_EEEENS3_IS6_EEEC1B7v160006IDnNS_18__default_init_tagEEEOT_OT0_, symObjAddr: 0x7024, symBinAddr: 0x100009A04, symSize: 0x3C }
  - { offsetInCU: 0x174EF, offset: 0x174EF, size: 0x8, addend: 0x0, symName: __ZNSt3__117__compressed_pairIPPNS_5dequeI5TokenNS_9allocatorIS2_EEEENS3_IS6_EEEC2B7v160006IDnNS_18__default_init_tagEEEOT_OT0_, symObjAddr: 0x7060, symBinAddr: 0x100009A40, symSize: 0x40 }
  - { offsetInCU: 0x17547, offset: 0x17547, size: 0x8, addend: 0x0, symName: __ZNSt3__122__compressed_pair_elemIPPNS_5dequeI5TokenNS_9allocatorIS2_EEEELi0ELb0EEC2B7v160006IDnvEEOT_, symObjAddr: 0x70A0, symBinAddr: 0x100009A80, symSize: 0x1C }
  - { offsetInCU: 0x17589, offset: 0x17589, size: 0x8, addend: 0x0, symName: __ZNSt3__122__compressed_pair_elemINS_9allocatorIPNS_5dequeI5TokenNS1_IS3_EEEEEELi1ELb1EEC2B7v160006ENS_18__default_init_tagE, symObjAddr: 0x70BC, symBinAddr: 0x100009A9C, symSize: 0x2C }
  - { offsetInCU: 0x175BD, offset: 0x175BD, size: 0x8, addend: 0x0, symName: __ZNSt3__19allocatorIPNS_5dequeI5TokenNS0_IS2_EEEEEC2B7v160006Ev, symObjAddr: 0x70E8, symBinAddr: 0x100009AC8, symSize: 0x2C }
  - { offsetInCU: 0x175E7, offset: 0x175E7, size: 0x8, addend: 0x0, symName: __ZNSt3__116__non_trivial_ifILb1ENS_9allocatorIPNS_5dequeI5TokenNS1_IS3_EEEEEEEC2B7v160006Ev, symObjAddr: 0x7114, symBinAddr: 0x100009AF4, symSize: 0x14 }
  - { offsetInCU: 0x17611, offset: 0x17611, size: 0x8, addend: 0x0, symName: __ZNSt3__117__compressed_pairImNS_9allocatorINS_5dequeI5TokenNS1_IS3_EEEEEEEC2B7v160006IiNS_18__default_init_tagEEEOT_OT0_, symObjAddr: 0x7128, symBinAddr: 0x100009B08, symSize: 0x40 }
  - { offsetInCU: 0x17669, offset: 0x17669, size: 0x8, addend: 0x0, symName: __ZNSt3__122__compressed_pair_elemImLi0ELb0EEC2B7v160006IivEEOT_, symObjAddr: 0x7168, symBinAddr: 0x100009B48, symSize: 0x24 }
  - { offsetInCU: 0x176AB, offset: 0x176AB, size: 0x8, addend: 0x0, symName: __ZNSt3__122__compressed_pair_elemINS_9allocatorINS_5dequeI5TokenNS1_IS3_EEEEEELi1ELb1EEC2B7v160006ENS_18__default_init_tagE, symObjAddr: 0x718C, symBinAddr: 0x100009B6C, symSize: 0x2C }
  - { offsetInCU: 0x176DF, offset: 0x176DF, size: 0x8, addend: 0x0, symName: __ZNSt3__19allocatorINS_5dequeI5TokenNS0_IS2_EEEEEC2B7v160006Ev, symObjAddr: 0x71B8, symBinAddr: 0x100009B98, symSize: 0x2C }
  - { offsetInCU: 0x17709, offset: 0x17709, size: 0x8, addend: 0x0, symName: __ZNSt3__116__non_trivial_ifILb1ENS_9allocatorINS_5dequeI5TokenNS1_IS3_EEEEEEEC2B7v160006Ev, symObjAddr: 0x71E4, symBinAddr: 0x100009BC4, symSize: 0x14 }
  - { offsetInCU: 0x17733, offset: 0x17733, size: 0x8, addend: 0x0, symName: __ZNSt3__15dequeINS0_I5TokenNS_9allocatorIS1_EEEENS2_IS4_EEED2B7v160006Ev, symObjAddr: 0x71F8, symBinAddr: 0x100009BD8, symSize: 0x9C }
  - { offsetInCU: 0x17789, offset: 0x17789, size: 0x8, addend: 0x0, symName: __ZNSt3__15dequeINS0_I5TokenNS_9allocatorIS1_EEEENS2_IS4_EEE5clearEv, symObjAddr: 0x7294, symBinAddr: 0x100009C74, symSize: 0x180 }
  - { offsetInCU: 0x177E4, offset: 0x177E4, size: 0x8, addend: 0x0, symName: __ZNSt3__114__split_bufferIPNS_5dequeI5TokenNS_9allocatorIS2_EEEENS3_IS6_EEE5beginB7v160006Ev, symObjAddr: 0x7414, symBinAddr: 0x100009DF4, symSize: 0x18 }
  - { offsetInCU: 0x1780A, offset: 0x1780A, size: 0x8, addend: 0x0, symName: __ZNSt3__114__split_bufferIPNS_5dequeI5TokenNS_9allocatorIS2_EEEENS3_IS6_EEE3endB7v160006Ev, symObjAddr: 0x742C, symBinAddr: 0x100009E0C, symSize: 0x18 }
  - { offsetInCU: 0x17830, offset: 0x17830, size: 0x8, addend: 0x0, symName: __ZNSt3__116allocator_traitsINS_9allocatorINS_5dequeI5TokenNS1_IS3_EEEEEEE10deallocateB7v160006ERS6_PS5_m, symObjAddr: 0x7444, symBinAddr: 0x100009E24, symSize: 0x34 }
  - { offsetInCU: 0x17872, offset: 0x17872, size: 0x8, addend: 0x0, symName: __ZNSt3__15dequeINS0_I5TokenNS_9allocatorIS1_EEEENS2_IS4_EEE7__allocB7v160006Ev, symObjAddr: 0x7478, symBinAddr: 0x100009E58, symSize: 0x28 }
  - { offsetInCU: 0x17898, offset: 0x17898, size: 0x8, addend: 0x0, symName: __ZNSt3__114__split_bufferIPNS_5dequeI5TokenNS_9allocatorIS2_EEEENS3_IS6_EEED1Ev, symObjAddr: 0x74A0, symBinAddr: 0x100009E80, symSize: 0x2C }
  - { offsetInCU: 0x178C4, offset: 0x178C4, size: 0x8, addend: 0x0, symName: __ZNSt3__15dequeINS0_I5TokenNS_9allocatorIS1_EEEENS2_IS4_EEE5beginB7v160006Ev, symObjAddr: 0x74CC, symBinAddr: 0x100009EAC, symSize: 0xC0 }
  - { offsetInCU: 0x178F9, offset: 0x178F9, size: 0x8, addend: 0x0, symName: __ZNSt3__15dequeINS0_I5TokenNS_9allocatorIS1_EEEENS2_IS4_EEE3endB7v160006Ev, symObjAddr: 0x758C, symBinAddr: 0x100009F6C, symSize: 0xC4 }
  - { offsetInCU: 0x1793D, offset: 0x1793D, size: 0x8, addend: 0x0, symName: __ZNSt3__116allocator_traitsINS_9allocatorINS_5dequeI5TokenNS1_IS3_EEEEEEE7destroyB7v160006IS5_vEEvRS6_PT_, symObjAddr: 0x7684, symBinAddr: 0x10000A064, symSize: 0x2C }
  - { offsetInCU: 0x1797A, offset: 0x1797A, size: 0x8, addend: 0x0, symName: __ZNKSt3__116__deque_iteratorINS_5dequeI5TokenNS_9allocatorIS2_EEEEPS5_RS5_PS6_lLl85EEdeB7v160006Ev, symObjAddr: 0x76B0, symBinAddr: 0x10000A090, symSize: 0x18 }
  - { offsetInCU: 0x179A0, offset: 0x179A0, size: 0x8, addend: 0x0, symName: __ZNSt3__116__deque_iteratorINS_5dequeI5TokenNS_9allocatorIS2_EEEEPS5_RS5_PS6_lLl85EEppB7v160006Ev, symObjAddr: 0x76C8, symBinAddr: 0x10000A0A8, symSize: 0x70 }
  - { offsetInCU: 0x179C6, offset: 0x179C6, size: 0x8, addend: 0x0, symName: __ZNSt3__15dequeINS0_I5TokenNS_9allocatorIS1_EEEENS2_IS4_EEE6__sizeB7v160006Ev, symObjAddr: 0x7738, symBinAddr: 0x10000A118, symSize: 0x28 }
  - { offsetInCU: 0x179EC, offset: 0x179EC, size: 0x8, addend: 0x0, symName: __ZNKSt3__114__split_bufferIPNS_5dequeI5TokenNS_9allocatorIS2_EEEENS3_IS6_EEE4sizeB7v160006Ev, symObjAddr: 0x7760, symBinAddr: 0x10000A140, symSize: 0x28 }
  - { offsetInCU: 0x17A12, offset: 0x17A12, size: 0x8, addend: 0x0, symName: __ZNSt3__114__split_bufferIPNS_5dequeI5TokenNS_9allocatorIS2_EEEENS3_IS6_EEE5frontB7v160006Ev, symObjAddr: 0x7788, symBinAddr: 0x10000A168, symSize: 0x18 }
  - { offsetInCU: 0x17A38, offset: 0x17A38, size: 0x8, addend: 0x0, symName: __ZNSt3__114__split_bufferIPNS_5dequeI5TokenNS_9allocatorIS2_EEEENS3_IS6_EEE9pop_frontB7v160006Ev, symObjAddr: 0x77A0, symBinAddr: 0x10000A180, symSize: 0x2C }
  - { offsetInCU: 0x17A5E, offset: 0x17A5E, size: 0x8, addend: 0x0, symName: __ZNKSt3__114__split_bufferIPNS_5dequeI5TokenNS_9allocatorIS2_EEEENS3_IS6_EEE5emptyB7v160006Ev, symObjAddr: 0x77CC, symBinAddr: 0x10000A1AC, symSize: 0x28 }
  - { offsetInCU: 0x17A84, offset: 0x17A84, size: 0x8, addend: 0x0, symName: __ZNSt3__116__deque_iteratorINS_5dequeI5TokenNS_9allocatorIS2_EEEEPS5_RS5_PS6_lLl85EEC1B7v160006ES8_S6_, symObjAddr: 0x77F4, symBinAddr: 0x10000A1D4, symSize: 0x3C }
  - { offsetInCU: 0x17ACC, offset: 0x17ACC, size: 0x8, addend: 0x0, symName: __ZNSt3__116__deque_iteratorINS_5dequeI5TokenNS_9allocatorIS2_EEEEPS5_RS5_PS6_lLl85EEC2B7v160006ES8_S6_, symObjAddr: 0x7830, symBinAddr: 0x10000A210, symSize: 0x2C }
  - { offsetInCU: 0x17B14, offset: 0x17B14, size: 0x8, addend: 0x0, symName: __ZNKSt3__15dequeINS0_I5TokenNS_9allocatorIS1_EEEENS2_IS4_EEE4sizeB7v160006Ev, symObjAddr: 0x785C, symBinAddr: 0x10000A23C, symSize: 0x28 }
  - { offsetInCU: 0x17B3A, offset: 0x17B3A, size: 0x8, addend: 0x0, symName: __ZNKSt3__15dequeINS0_I5TokenNS_9allocatorIS1_EEEENS2_IS4_EEE6__sizeB7v160006Ev, symObjAddr: 0x7884, symBinAddr: 0x10000A264, symSize: 0x28 }
  - { offsetInCU: 0x17B60, offset: 0x17B60, size: 0x8, addend: 0x0, symName: __ZNKSt3__117__compressed_pairImNS_9allocatorINS_5dequeI5TokenNS1_IS3_EEEEEEE5firstB7v160006Ev, symObjAddr: 0x78AC, symBinAddr: 0x10000A28C, symSize: 0x24 }
  - { offsetInCU: 0x17B86, offset: 0x17B86, size: 0x8, addend: 0x0, symName: __ZNKSt3__122__compressed_pair_elemImLi0ELb0EE5__getB7v160006Ev, symObjAddr: 0x78D0, symBinAddr: 0x10000A2B0, symSize: 0x14 }
  - { offsetInCU: 0x17BAC, offset: 0x17BAC, size: 0x8, addend: 0x0, symName: __ZNSt3__19allocatorINS_5dequeI5TokenNS0_IS2_EEEEE7destroyB7v160006EPS4_, symObjAddr: 0x7914, symBinAddr: 0x10000A2F4, symSize: 0x28 }
  - { offsetInCU: 0x17BE0, offset: 0x17BE0, size: 0x8, addend: 0x0, symName: __ZNSt3__117__compressed_pairImNS_9allocatorINS_5dequeI5TokenNS1_IS3_EEEEEEE5firstB7v160006Ev, symObjAddr: 0x793C, symBinAddr: 0x10000A31C, symSize: 0x24 }
  - { offsetInCU: 0x17C06, offset: 0x17C06, size: 0x8, addend: 0x0, symName: __ZNSt3__122__compressed_pair_elemImLi0ELb0EE5__getB7v160006Ev, symObjAddr: 0x7960, symBinAddr: 0x10000A340, symSize: 0x14 }
  - { offsetInCU: 0x17C2C, offset: 0x17C2C, size: 0x8, addend: 0x0, symName: __ZNSt3__114__split_bufferIPNS_5dequeI5TokenNS_9allocatorIS2_EEEENS3_IS6_EEE19__destruct_at_beginB7v160006EPS6_, symObjAddr: 0x7974, symBinAddr: 0x10000A354, symSize: 0x2C }
  - { offsetInCU: 0x17C60, offset: 0x17C60, size: 0x8, addend: 0x0, symName: __ZNSt3__114__split_bufferIPNS_5dequeI5TokenNS_9allocatorIS2_EEEENS3_IS6_EEE19__destruct_at_beginEPS6_NS_17integral_constantIbLb1EEE, symObjAddr: 0x79A0, symBinAddr: 0x10000A380, symSize: 0x20 }
  - { offsetInCU: 0x17CA0, offset: 0x17CA0, size: 0x8, addend: 0x0, symName: __ZNSt3__19allocatorINS_5dequeI5TokenNS0_IS2_EEEEE10deallocateB7v160006EPS4_m, symObjAddr: 0x79C0, symBinAddr: 0x10000A3A0, symSize: 0x44 }
  - { offsetInCU: 0x17CE2, offset: 0x17CE2, size: 0x8, addend: 0x0, symName: __ZNSt3__117__compressed_pairImNS_9allocatorINS_5dequeI5TokenNS1_IS3_EEEEEEE6secondB7v160006Ev, symObjAddr: 0x7A04, symBinAddr: 0x10000A3E4, symSize: 0x24 }
  - { offsetInCU: 0x17D08, offset: 0x17D08, size: 0x8, addend: 0x0, symName: __ZNSt3__122__compressed_pair_elemINS_9allocatorINS_5dequeI5TokenNS1_IS3_EEEEEELi1ELb1EE5__getB7v160006Ev, symObjAddr: 0x7A28, symBinAddr: 0x10000A408, symSize: 0x14 }
  - { offsetInCU: 0x17D2E, offset: 0x17D2E, size: 0x8, addend: 0x0, symName: __ZNSt3__114__split_bufferIPNS_5dequeI5TokenNS_9allocatorIS2_EEEENS3_IS6_EEED2Ev, symObjAddr: 0x7A3C, symBinAddr: 0x10000A41C, symSize: 0x8C }
  - { offsetInCU: 0x17D5A, offset: 0x17D5A, size: 0x8, addend: 0x0, symName: __ZNSt3__114__split_bufferIPNS_5dequeI5TokenNS_9allocatorIS2_EEEENS3_IS6_EEE5clearB7v160006Ev, symObjAddr: 0x7AC8, symBinAddr: 0x10000A4A8, symSize: 0x28 }
  - { offsetInCU: 0x17D80, offset: 0x17D80, size: 0x8, addend: 0x0, symName: __ZNSt3__116allocator_traitsINS_9allocatorIPNS_5dequeI5TokenNS1_IS3_EEEEEEE10deallocateB7v160006ERS7_PS6_m, symObjAddr: 0x7AF0, symBinAddr: 0x10000A4D0, symSize: 0x34 }
  - { offsetInCU: 0x17DC2, offset: 0x17DC2, size: 0x8, addend: 0x0, symName: __ZNSt3__114__split_bufferIPNS_5dequeI5TokenNS_9allocatorIS2_EEEENS3_IS6_EEE7__allocB7v160006Ev, symObjAddr: 0x7B24, symBinAddr: 0x10000A504, symSize: 0x28 }
  - { offsetInCU: 0x17DE8, offset: 0x17DE8, size: 0x8, addend: 0x0, symName: __ZNKSt3__114__split_bufferIPNS_5dequeI5TokenNS_9allocatorIS2_EEEENS3_IS6_EEE8capacityB7v160006Ev, symObjAddr: 0x7B4C, symBinAddr: 0x10000A52C, symSize: 0x40 }
  - { offsetInCU: 0x17E0E, offset: 0x17E0E, size: 0x8, addend: 0x0, symName: __ZNSt3__114__split_bufferIPNS_5dequeI5TokenNS_9allocatorIS2_EEEENS3_IS6_EEE17__destruct_at_endB7v160006EPS6_, symObjAddr: 0x7B8C, symBinAddr: 0x10000A56C, symSize: 0x2C }
  - { offsetInCU: 0x17E42, offset: 0x17E42, size: 0x8, addend: 0x0, symName: __ZNSt3__114__split_bufferIPNS_5dequeI5TokenNS_9allocatorIS2_EEEENS3_IS6_EEE17__destruct_at_endB7v160006EPS6_NS_17integral_constantIbLb0EEE, symObjAddr: 0x7BB8, symBinAddr: 0x10000A598, symSize: 0x80 }
  - { offsetInCU: 0x17E82, offset: 0x17E82, size: 0x8, addend: 0x0, symName: __ZNSt3__116allocator_traitsINS_9allocatorIPNS_5dequeI5TokenNS1_IS3_EEEEEEE7destroyB7v160006IS6_vEEvRS7_PT_, symObjAddr: 0x7C38, symBinAddr: 0x10000A618, symSize: 0x2C }
  - { offsetInCU: 0x17EBF, offset: 0x17EBF, size: 0x8, addend: 0x0, symName: __ZNSt3__19allocatorIPNS_5dequeI5TokenNS0_IS2_EEEEE7destroyB7v160006EPS5_, symObjAddr: 0x7C78, symBinAddr: 0x10000A658, symSize: 0x14 }
  - { offsetInCU: 0x17EF3, offset: 0x17EF3, size: 0x8, addend: 0x0, symName: __ZNSt3__19allocatorIPNS_5dequeI5TokenNS0_IS2_EEEEE10deallocateB7v160006EPS5_m, symObjAddr: 0x7C8C, symBinAddr: 0x10000A66C, symSize: 0x40 }
  - { offsetInCU: 0x17F35, offset: 0x17F35, size: 0x8, addend: 0x0, symName: __ZNSt3__117__compressed_pairIPPNS_5dequeI5TokenNS_9allocatorIS2_EEEENS3_IS6_EEE6secondB7v160006Ev, symObjAddr: 0x7CCC, symBinAddr: 0x10000A6AC, symSize: 0x24 }
  - { offsetInCU: 0x17F5B, offset: 0x17F5B, size: 0x8, addend: 0x0, symName: __ZNSt3__122__compressed_pair_elemINS_9allocatorIPNS_5dequeI5TokenNS1_IS3_EEEEEELi1ELb1EE5__getB7v160006Ev, symObjAddr: 0x7CF0, symBinAddr: 0x10000A6D0, symSize: 0x14 }
  - { offsetInCU: 0x17F81, offset: 0x17F81, size: 0x8, addend: 0x0, symName: __ZNKSt3__114__split_bufferIPNS_5dequeI5TokenNS_9allocatorIS2_EEEENS3_IS6_EEE9__end_capB7v160006Ev, symObjAddr: 0x7D04, symBinAddr: 0x10000A6E4, symSize: 0x28 }
  - { offsetInCU: 0x17FA7, offset: 0x17FA7, size: 0x8, addend: 0x0, symName: __ZNKSt3__117__compressed_pairIPPNS_5dequeI5TokenNS_9allocatorIS2_EEEENS3_IS6_EEE5firstB7v160006Ev, symObjAddr: 0x7D2C, symBinAddr: 0x10000A70C, symSize: 0x24 }
  - { offsetInCU: 0x17FCD, offset: 0x17FCD, size: 0x8, addend: 0x0, symName: __ZNKSt3__122__compressed_pair_elemIPPNS_5dequeI5TokenNS_9allocatorIS2_EEEELi0ELb0EE5__getB7v160006Ev, symObjAddr: 0x7D50, symBinAddr: 0x10000A730, symSize: 0x14 }
  - { offsetInCU: 0x17FF3, offset: 0x17FF3, size: 0x8, addend: 0x0, symName: __ZNSt3__19basic_iosIcNS_11char_traitsIcEEEC2B7v160006Ev, symObjAddr: 0x7D64, symBinAddr: 0x10000A744, symSize: 0x44 }
  - { offsetInCU: 0x1801D, offset: 0x1801D, size: 0x8, addend: 0x0, symName: __ZNSt3__113basic_istreamIcNS_11char_traitsIcEEEC2B7v160006EPNS_15basic_streambufIcS2_EE, symObjAddr: 0x7DA8, symBinAddr: 0x10000A788, symSize: 0x64 }
  - { offsetInCU: 0x18062, offset: 0x18062, size: 0x8, addend: 0x0, symName: __ZNSt3__115basic_stringbufIcNS_11char_traitsIcEENS_9allocatorIcEEEC1B7v160006ERKNS_12basic_stringIcS2_S4_EEj, symObjAddr: 0x7E0C, symBinAddr: 0x10000A7EC, symSize: 0x3C }
  - { offsetInCU: 0x180A8, offset: 0x180A8, size: 0x8, addend: 0x0, symName: __ZNSt3__18ios_baseC2B7v160006Ev, symObjAddr: 0x7E48, symBinAddr: 0x10000A828, symSize: 0x24 }
  - { offsetInCU: 0x180D2, offset: 0x180D2, size: 0x8, addend: 0x0, symName: __ZNSt3__19basic_iosIcNS_11char_traitsIcEEE4initB7v160006EPNS_15basic_streambufIcS2_EE, symObjAddr: 0x7E6C, symBinAddr: 0x10000A84C, symSize: 0x44 }
  - { offsetInCU: 0x18109, offset: 0x18109, size: 0x8, addend: 0x0, symName: __ZNSt3__111char_traitsIcE3eofEv, symObjAddr: 0x7EB0, symBinAddr: 0x10000A890, symSize: 0x8 }
  - { offsetInCU: 0x1811D, offset: 0x1811D, size: 0x8, addend: 0x0, symName: __ZNSt3__115basic_stringbufIcNS_11char_traitsIcEENS_9allocatorIcEEEC2B7v160006ERKNS_12basic_stringIcS2_S4_EEj, symObjAddr: 0x7EB8, symBinAddr: 0x10000A898, symSize: 0xB4 }
  - { offsetInCU: 0x18163, offset: 0x18163, size: 0x8, addend: 0x0, symName: __ZNKSt3__112basic_stringIcNS_11char_traitsIcEENS_9allocatorIcEEE13get_allocatorB7v160006Ev, symObjAddr: 0x7F6C, symBinAddr: 0x10000A94C, symSize: 0x24 }
  - { offsetInCU: 0x18189, offset: 0x18189, size: 0x8, addend: 0x0, symName: __ZNSt3__112basic_stringIcNS_11char_traitsIcEENS_9allocatorIcEEEC1B7v160006ERKS4_, symObjAddr: 0x7F90, symBinAddr: 0x10000A970, symSize: 0x34 }
  - { offsetInCU: 0x181C2, offset: 0x181C2, size: 0x8, addend: 0x0, symName: __ZNKSt3__112basic_stringIcNS_11char_traitsIcEENS_9allocatorIcEEE7__allocB7v160006Ev, symObjAddr: 0x7FC4, symBinAddr: 0x10000A9A4, symSize: 0x24 }
  - { offsetInCU: 0x181E8, offset: 0x181E8, size: 0x8, addend: 0x0, symName: __ZNKSt3__117__compressed_pairINS_12basic_stringIcNS_11char_traitsIcEENS_9allocatorIcEEE5__repES5_E6secondB7v160006Ev, symObjAddr: 0x7FE8, symBinAddr: 0x10000A9C8, symSize: 0x24 }
  - { offsetInCU: 0x1820E, offset: 0x1820E, size: 0x8, addend: 0x0, symName: __ZNKSt3__122__compressed_pair_elemINS_9allocatorIcEELi1ELb1EE5__getB7v160006Ev, symObjAddr: 0x800C, symBinAddr: 0x10000A9EC, symSize: 0x14 }
  - { offsetInCU: 0x18234, offset: 0x18234, size: 0x8, addend: 0x0, symName: __ZNSt3__112basic_stringIcNS_11char_traitsIcEENS_9allocatorIcEEEC2B7v160006ERKS4_, symObjAddr: 0x8020, symBinAddr: 0x10000AA00, symSize: 0x50 }
  - { offsetInCU: 0x1826D, offset: 0x1826D, size: 0x8, addend: 0x0, symName: __ZNSt3__117__compressed_pairINS_12basic_stringIcNS_11char_traitsIcEENS_9allocatorIcEEE5__repES5_EC1B7v160006INS_18__default_init_tagERKS5_EEOT_OT0_, symObjAddr: 0x8070, symBinAddr: 0x10000AA50, symSize: 0x3C }
  - { offsetInCU: 0x182C5, offset: 0x182C5, size: 0x8, addend: 0x0, symName: __ZNSt3__117__compressed_pairINS_12basic_stringIcNS_11char_traitsIcEENS_9allocatorIcEEE5__repES5_EC2B7v160006INS_18__default_init_tagERKS5_EEOT_OT0_, symObjAddr: 0x80AC, symBinAddr: 0x10000AA8C, symSize: 0x40 }
  - { offsetInCU: 0x1831D, offset: 0x1831D, size: 0x8, addend: 0x0, symName: __ZNSt3__122__compressed_pair_elemINS_9allocatorIcEELi1ELb1EEC2B7v160006IRKS2_vEEOT_, symObjAddr: 0x80EC, symBinAddr: 0x10000AACC, symSize: 0x18 }
  - { offsetInCU: 0x1837D, offset: 0x1837D, size: 0x8, addend: 0x0, symName: __ZNKSt3__113basic_istreamIcNS_11char_traitsIcEEE6sentrycvbB7v160006Ev, symObjAddr: 0x8104, symBinAddr: 0x10000AAE4, symSize: 0x1C }
  - { offsetInCU: 0x183A3, offset: 0x183A3, size: 0x8, addend: 0x0, symName: __ZNKSt3__19basic_iosIcNS_11char_traitsIcEEE5rdbufB7v160006Ev, symObjAddr: 0x8120, symBinAddr: 0x10000AB00, symSize: 0x24 }
  - { offsetInCU: 0x183CB, offset: 0x183CB, size: 0x8, addend: 0x0, symName: __ZNSt3__115basic_streambufIcNS_11char_traitsIcEEE6sbumpcB7v160006Ev, symObjAddr: 0x8144, symBinAddr: 0x10000AB24, symSize: 0x78 }
  - { offsetInCU: 0x183F1, offset: 0x183F1, size: 0x8, addend: 0x0, symName: __ZNSt3__111char_traitsIcE11eq_int_typeEii, symObjAddr: 0x81BC, symBinAddr: 0x10000AB9C, symSize: 0x28 }
  - { offsetInCU: 0x18422, offset: 0x18422, size: 0x8, addend: 0x0, symName: __ZNSt3__111char_traitsIcE12to_char_typeEi, symObjAddr: 0x81E4, symBinAddr: 0x10000ABC4, symSize: 0x18 }
  - { offsetInCU: 0x18445, offset: 0x18445, size: 0x8, addend: 0x0, symName: __ZNSt3__111char_traitsIcE2eqEcc, symObjAddr: 0x81FC, symBinAddr: 0x10000ABDC, symSize: 0x28 }
  - { offsetInCU: 0x18476, offset: 0x18476, size: 0x8, addend: 0x0, symName: __ZNKSt3__112basic_stringIcNS_11char_traitsIcEENS_9allocatorIcEEE8max_sizeB7v160006Ev, symObjAddr: 0x8224, symBinAddr: 0x10000AC04, symSize: 0xAC }
  - { offsetInCU: 0x184C8, offset: 0x184C8, size: 0x8, addend: 0x0, symName: __ZNSt3__18ios_base18__setstate_nothrowB7v160006Ej, symObjAddr: 0x82D0, symBinAddr: 0x10000ACB0, symSize: 0x64 }
  - { offsetInCU: 0x184FD, offset: 0x184FD, size: 0x8, addend: 0x0, symName: __ZNKSt3__19basic_iosIcNS_11char_traitsIcEEE10exceptionsB7v160006Ev, symObjAddr: 0x8334, symBinAddr: 0x10000AD14, symSize: 0x24 }
  - { offsetInCU: 0x18523, offset: 0x18523, size: 0x8, addend: 0x0, symName: __ZNSt3__19basic_iosIcNS_11char_traitsIcEEE8setstateB7v160006Ej, symObjAddr: 0x8358, symBinAddr: 0x10000AD38, symSize: 0x2C }
  - { offsetInCU: 0x18558, offset: 0x18558, size: 0x8, addend: 0x0, symName: __ZNKSt3__18ios_base5rdbufB7v160006Ev, symObjAddr: 0x8384, symBinAddr: 0x10000AD64, symSize: 0x18 }
  - { offsetInCU: 0x1857E, offset: 0x1857E, size: 0x8, addend: 0x0, symName: __ZNSt3__111char_traitsIcE11to_int_typeEc, symObjAddr: 0x839C, symBinAddr: 0x10000AD7C, symSize: 0x14 }
  - { offsetInCU: 0x185AB, offset: 0x185AB, size: 0x8, addend: 0x0, symName: __ZNSt3__116allocator_traitsINS_9allocatorIcEEE8max_sizeB7v160006IS2_vEEmRKS2_, symObjAddr: 0x83B0, symBinAddr: 0x10000AD90, symSize: 0x24 }
  - { offsetInCU: 0x185D9, offset: 0x185D9, size: 0x8, addend: 0x0, symName: __ZNSt3__114numeric_limitsImE3maxB7v160006Ev, symObjAddr: 0x83D4, symBinAddr: 0x10000ADB4, symSize: 0x14 }
  - { offsetInCU: 0x185ED, offset: 0x185ED, size: 0x8, addend: 0x0, symName: __ZNKSt3__19allocatorIcE8max_sizeB7v160006Ev, symObjAddr: 0x83E8, symBinAddr: 0x10000ADC8, symSize: 0x14 }
  - { offsetInCU: 0x18613, offset: 0x18613, size: 0x8, addend: 0x0, symName: __ZNSt3__123__libcpp_numeric_limitsImLb1EE3maxB7v160006Ev, symObjAddr: 0x83FC, symBinAddr: 0x10000ADDC, symSize: 0x8 }
  - { offsetInCU: 0x18627, offset: 0x18627, size: 0x8, addend: 0x0, symName: __ZNKSt3__18ios_base10exceptionsB7v160006Ev, symObjAddr: 0x8404, symBinAddr: 0x10000ADE4, symSize: 0x18 }
  - { offsetInCU: 0x1864F, offset: 0x1864F, size: 0x8, addend: 0x0, symName: __ZNSt3__18ios_base8setstateB7v160006Ej, symObjAddr: 0x841C, symBinAddr: 0x10000ADFC, symSize: 0x34 }
  - { offsetInCU: 0x18686, offset: 0x18686, size: 0x8, addend: 0x0, symName: __ZNKSt3__19basic_iosIcNS_11char_traitsIcEEE4failB7v160006Ev, symObjAddr: 0x8450, symBinAddr: 0x10000AE30, symSize: 0x28 }
  - { offsetInCU: 0x186AC, offset: 0x186AC, size: 0x8, addend: 0x0, symName: __ZNKSt3__18ios_base4failB7v160006Ev, symObjAddr: 0x8478, symBinAddr: 0x10000AE58, symSize: 0x28 }
  - { offsetInCU: 0x186D4, offset: 0x186D4, size: 0x8, addend: 0x0, symName: __ZNSt3__15dequeI5TokenNS_9allocatorIS1_EEEC2B7v160006Ev, symObjAddr: 0x84A0, symBinAddr: 0x10000AE80, symSize: 0x50 }
  - { offsetInCU: 0x186FE, offset: 0x186FE, size: 0x8, addend: 0x0, symName: __ZNSt3__114__split_bufferIP5TokenNS_9allocatorIS2_EEEC1Ev, symObjAddr: 0x84F0, symBinAddr: 0x10000AED0, symSize: 0x2C }
  - { offsetInCU: 0x1872A, offset: 0x1872A, size: 0x8, addend: 0x0, symName: __ZNSt3__117__compressed_pairImNS_9allocatorI5TokenEEEC1B7v160006IiNS_18__default_init_tagEEEOT_OT0_, symObjAddr: 0x851C, symBinAddr: 0x10000AEFC, symSize: 0x3C }
  - { offsetInCU: 0x18782, offset: 0x18782, size: 0x8, addend: 0x0, symName: __ZNSt3__114__split_bufferIP5TokenNS_9allocatorIS2_EEEC2Ev, symObjAddr: 0x8558, symBinAddr: 0x10000AF38, symSize: 0x50 }
  - { offsetInCU: 0x187AE, offset: 0x187AE, size: 0x8, addend: 0x0, symName: __ZNSt3__117__compressed_pairIPP5TokenNS_9allocatorIS2_EEEC1B7v160006IDnNS_18__default_init_tagEEEOT_OT0_, symObjAddr: 0x85A8, symBinAddr: 0x10000AF88, symSize: 0x3C }
  - { offsetInCU: 0x18806, offset: 0x18806, size: 0x8, addend: 0x0, symName: __ZNSt3__117__compressed_pairIPP5TokenNS_9allocatorIS2_EEEC2B7v160006IDnNS_18__default_init_tagEEEOT_OT0_, symObjAddr: 0x85E4, symBinAddr: 0x10000AFC4, symSize: 0x40 }
  - { offsetInCU: 0x1885E, offset: 0x1885E, size: 0x8, addend: 0x0, symName: __ZNSt3__122__compressed_pair_elemIPP5TokenLi0ELb0EEC2B7v160006IDnvEEOT_, symObjAddr: 0x8624, symBinAddr: 0x10000B004, symSize: 0x1C }
  - { offsetInCU: 0x188A0, offset: 0x188A0, size: 0x8, addend: 0x0, symName: __ZNSt3__122__compressed_pair_elemINS_9allocatorIP5TokenEELi1ELb1EEC2B7v160006ENS_18__default_init_tagE, symObjAddr: 0x8640, symBinAddr: 0x10000B020, symSize: 0x2C }
  - { offsetInCU: 0x188D4, offset: 0x188D4, size: 0x8, addend: 0x0, symName: __ZNSt3__19allocatorIP5TokenEC2B7v160006Ev, symObjAddr: 0x866C, symBinAddr: 0x10000B04C, symSize: 0x2C }
  - { offsetInCU: 0x188FE, offset: 0x188FE, size: 0x8, addend: 0x0, symName: __ZNSt3__116__non_trivial_ifILb1ENS_9allocatorIP5TokenEEEC2B7v160006Ev, symObjAddr: 0x8698, symBinAddr: 0x10000B078, symSize: 0x14 }
  - { offsetInCU: 0x18928, offset: 0x18928, size: 0x8, addend: 0x0, symName: __ZNSt3__117__compressed_pairImNS_9allocatorI5TokenEEEC2B7v160006IiNS_18__default_init_tagEEEOT_OT0_, symObjAddr: 0x86AC, symBinAddr: 0x10000B08C, symSize: 0x40 }
  - { offsetInCU: 0x18980, offset: 0x18980, size: 0x8, addend: 0x0, symName: __ZNSt3__122__compressed_pair_elemINS_9allocatorI5TokenEELi1ELb1EEC2B7v160006ENS_18__default_init_tagE, symObjAddr: 0x86EC, symBinAddr: 0x10000B0CC, symSize: 0x2C }
  - { offsetInCU: 0x189B4, offset: 0x189B4, size: 0x8, addend: 0x0, symName: __ZNSt3__19allocatorI5TokenEC2B7v160006Ev, symObjAddr: 0x8718, symBinAddr: 0x10000B0F8, symSize: 0x2C }
  - { offsetInCU: 0x189DE, offset: 0x189DE, size: 0x8, addend: 0x0, symName: __ZNSt3__116__non_trivial_ifILb1ENS_9allocatorI5TokenEEEC2B7v160006Ev, symObjAddr: 0x8744, symBinAddr: 0x10000B124, symSize: 0x14 }
  - { offsetInCU: 0x18A08, offset: 0x18A08, size: 0x8, addend: 0x0, symName: __ZNSt3__15dequeI5TokenNS_9allocatorIS1_EEED2B7v160006Ev, symObjAddr: 0x8758, symBinAddr: 0x10000B138, symSize: 0x9C }
  - { offsetInCU: 0x18A5E, offset: 0x18A5E, size: 0x8, addend: 0x0, symName: __ZNSt3__15dequeI5TokenNS_9allocatorIS1_EEE5clearEv, symObjAddr: 0x87F4, symBinAddr: 0x10000B1D4, symSize: 0x180 }
  - { offsetInCU: 0x18AB9, offset: 0x18AB9, size: 0x8, addend: 0x0, symName: __ZNSt3__114__split_bufferIP5TokenNS_9allocatorIS2_EEE5beginB7v160006Ev, symObjAddr: 0x8974, symBinAddr: 0x10000B354, symSize: 0x18 }
  - { offsetInCU: 0x18ADF, offset: 0x18ADF, size: 0x8, addend: 0x0, symName: __ZNSt3__114__split_bufferIP5TokenNS_9allocatorIS2_EEE3endB7v160006Ev, symObjAddr: 0x898C, symBinAddr: 0x10000B36C, symSize: 0x18 }
  - { offsetInCU: 0x18B05, offset: 0x18B05, size: 0x8, addend: 0x0, symName: __ZNSt3__116allocator_traitsINS_9allocatorI5TokenEEE10deallocateB7v160006ERS3_PS2_m, symObjAddr: 0x89A4, symBinAddr: 0x10000B384, symSize: 0x34 }
  - { offsetInCU: 0x18B47, offset: 0x18B47, size: 0x8, addend: 0x0, symName: __ZNSt3__15dequeI5TokenNS_9allocatorIS1_EEE7__allocB7v160006Ev, symObjAddr: 0x89D8, symBinAddr: 0x10000B3B8, symSize: 0x28 }
  - { offsetInCU: 0x18B6D, offset: 0x18B6D, size: 0x8, addend: 0x0, symName: __ZNSt3__114__split_bufferIP5TokenNS_9allocatorIS2_EEED1Ev, symObjAddr: 0x8A00, symBinAddr: 0x10000B3E0, symSize: 0x2C }
  - { offsetInCU: 0x18B99, offset: 0x18B99, size: 0x8, addend: 0x0, symName: __ZNSt3__15dequeI5TokenNS_9allocatorIS1_EEE5beginB7v160006Ev, symObjAddr: 0x8A2C, symBinAddr: 0x10000B40C, symSize: 0xC0 }
  - { offsetInCU: 0x18BCE, offset: 0x18BCE, size: 0x8, addend: 0x0, symName: __ZNSt3__15dequeI5TokenNS_9allocatorIS1_EEE3endB7v160006Ev, symObjAddr: 0x8AEC, symBinAddr: 0x10000B4CC, symSize: 0xC4 }
  - { offsetInCU: 0x18C12, offset: 0x18C12, size: 0x8, addend: 0x0, symName: __ZNSt3__116allocator_traitsINS_9allocatorI5TokenEEE7destroyB7v160006IS2_vEEvRS3_PT_, symObjAddr: 0x8BE4, symBinAddr: 0x10000B5C4, symSize: 0x2C }
  - { offsetInCU: 0x18C4F, offset: 0x18C4F, size: 0x8, addend: 0x0, symName: __ZNKSt3__116__deque_iteratorI5TokenPS1_RS1_PS2_lLl85EEdeB7v160006Ev, symObjAddr: 0x8C10, symBinAddr: 0x10000B5F0, symSize: 0x18 }
  - { offsetInCU: 0x18C75, offset: 0x18C75, size: 0x8, addend: 0x0, symName: __ZNSt3__116__deque_iteratorI5TokenPS1_RS1_PS2_lLl85EEppB7v160006Ev, symObjAddr: 0x8C28, symBinAddr: 0x10000B608, symSize: 0x70 }
  - { offsetInCU: 0x18C9B, offset: 0x18C9B, size: 0x8, addend: 0x0, symName: __ZNSt3__15dequeI5TokenNS_9allocatorIS1_EEE6__sizeB7v160006Ev, symObjAddr: 0x8C98, symBinAddr: 0x10000B678, symSize: 0x28 }
  - { offsetInCU: 0x18CC1, offset: 0x18CC1, size: 0x8, addend: 0x0, symName: __ZNKSt3__114__split_bufferIP5TokenNS_9allocatorIS2_EEE4sizeB7v160006Ev, symObjAddr: 0x8CC0, symBinAddr: 0x10000B6A0, symSize: 0x28 }
  - { offsetInCU: 0x18CE7, offset: 0x18CE7, size: 0x8, addend: 0x0, symName: __ZNSt3__114__split_bufferIP5TokenNS_9allocatorIS2_EEE5frontB7v160006Ev, symObjAddr: 0x8CE8, symBinAddr: 0x10000B6C8, symSize: 0x18 }
  - { offsetInCU: 0x18D0D, offset: 0x18D0D, size: 0x8, addend: 0x0, symName: __ZNSt3__114__split_bufferIP5TokenNS_9allocatorIS2_EEE9pop_frontB7v160006Ev, symObjAddr: 0x8D00, symBinAddr: 0x10000B6E0, symSize: 0x2C }
  - { offsetInCU: 0x18D33, offset: 0x18D33, size: 0x8, addend: 0x0, symName: __ZNKSt3__114__split_bufferIP5TokenNS_9allocatorIS2_EEE5emptyB7v160006Ev, symObjAddr: 0x8D2C, symBinAddr: 0x10000B70C, symSize: 0x28 }
  - { offsetInCU: 0x18D59, offset: 0x18D59, size: 0x8, addend: 0x0, symName: __ZNSt3__116__deque_iteratorI5TokenPS1_RS1_PS2_lLl85EEC1B7v160006ES4_S2_, symObjAddr: 0x8D54, symBinAddr: 0x10000B734, symSize: 0x3C }
  - { offsetInCU: 0x18DA1, offset: 0x18DA1, size: 0x8, addend: 0x0, symName: __ZNSt3__116__deque_iteratorI5TokenPS1_RS1_PS2_lLl85EEC2B7v160006ES4_S2_, symObjAddr: 0x8D90, symBinAddr: 0x10000B770, symSize: 0x2C }
  - { offsetInCU: 0x18DE9, offset: 0x18DE9, size: 0x8, addend: 0x0, symName: __ZNSt3__19allocatorI5TokenE7destroyB7v160006EPS1_, symObjAddr: 0x8DEC, symBinAddr: 0x10000B7CC, symSize: 0x28 }
  - { offsetInCU: 0x18E1D, offset: 0x18E1D, size: 0x8, addend: 0x0, symName: __ZNSt3__117__compressed_pairImNS_9allocatorI5TokenEEE5firstB7v160006Ev, symObjAddr: 0x8E14, symBinAddr: 0x10000B7F4, symSize: 0x24 }
  - { offsetInCU: 0x18E43, offset: 0x18E43, size: 0x8, addend: 0x0, symName: __ZNSt3__114__split_bufferIP5TokenNS_9allocatorIS2_EEE19__destruct_at_beginB7v160006EPS2_, symObjAddr: 0x8E38, symBinAddr: 0x10000B818, symSize: 0x2C }
  - { offsetInCU: 0x18E77, offset: 0x18E77, size: 0x8, addend: 0x0, symName: __ZNSt3__114__split_bufferIP5TokenNS_9allocatorIS2_EEE19__destruct_at_beginEPS2_NS_17integral_constantIbLb1EEE, symObjAddr: 0x8E64, symBinAddr: 0x10000B844, symSize: 0x20 }
  - { offsetInCU: 0x18EB7, offset: 0x18EB7, size: 0x8, addend: 0x0, symName: __ZNSt3__19allocatorI5TokenE10deallocateB7v160006EPS1_m, symObjAddr: 0x8E84, symBinAddr: 0x10000B864, symSize: 0x44 }
  - { offsetInCU: 0x18EF9, offset: 0x18EF9, size: 0x8, addend: 0x0, symName: __ZNSt3__117__compressed_pairImNS_9allocatorI5TokenEEE6secondB7v160006Ev, symObjAddr: 0x8EC8, symBinAddr: 0x10000B8A8, symSize: 0x24 }
  - { offsetInCU: 0x18F1F, offset: 0x18F1F, size: 0x8, addend: 0x0, symName: __ZNSt3__122__compressed_pair_elemINS_9allocatorI5TokenEELi1ELb1EE5__getB7v160006Ev, symObjAddr: 0x8EEC, symBinAddr: 0x10000B8CC, symSize: 0x14 }
  - { offsetInCU: 0x18F45, offset: 0x18F45, size: 0x8, addend: 0x0, symName: __ZNSt3__114__split_bufferIP5TokenNS_9allocatorIS2_EEED2Ev, symObjAddr: 0x8F00, symBinAddr: 0x10000B8E0, symSize: 0x8C }
  - { offsetInCU: 0x18F71, offset: 0x18F71, size: 0x8, addend: 0x0, symName: __ZNSt3__114__split_bufferIP5TokenNS_9allocatorIS2_EEE5clearB7v160006Ev, symObjAddr: 0x8F8C, symBinAddr: 0x10000B96C, symSize: 0x28 }
  - { offsetInCU: 0x18F97, offset: 0x18F97, size: 0x8, addend: 0x0, symName: __ZNSt3__116allocator_traitsINS_9allocatorIP5TokenEEE10deallocateB7v160006ERS4_PS3_m, symObjAddr: 0x8FB4, symBinAddr: 0x10000B994, symSize: 0x34 }
  - { offsetInCU: 0x18FD9, offset: 0x18FD9, size: 0x8, addend: 0x0, symName: __ZNSt3__114__split_bufferIP5TokenNS_9allocatorIS2_EEE7__allocB7v160006Ev, symObjAddr: 0x8FE8, symBinAddr: 0x10000B9C8, symSize: 0x28 }
  - { offsetInCU: 0x18FFF, offset: 0x18FFF, size: 0x8, addend: 0x0, symName: __ZNKSt3__114__split_bufferIP5TokenNS_9allocatorIS2_EEE8capacityB7v160006Ev, symObjAddr: 0x9010, symBinAddr: 0x10000B9F0, symSize: 0x40 }
  - { offsetInCU: 0x19025, offset: 0x19025, size: 0x8, addend: 0x0, symName: __ZNSt3__114__split_bufferIP5TokenNS_9allocatorIS2_EEE17__destruct_at_endB7v160006EPS2_, symObjAddr: 0x9050, symBinAddr: 0x10000BA30, symSize: 0x2C }
  - { offsetInCU: 0x19059, offset: 0x19059, size: 0x8, addend: 0x0, symName: __ZNSt3__114__split_bufferIP5TokenNS_9allocatorIS2_EEE17__destruct_at_endB7v160006EPS2_NS_17integral_constantIbLb0EEE, symObjAddr: 0x907C, symBinAddr: 0x10000BA5C, symSize: 0x80 }
  - { offsetInCU: 0x19099, offset: 0x19099, size: 0x8, addend: 0x0, symName: __ZNSt3__116allocator_traitsINS_9allocatorIP5TokenEEE7destroyB7v160006IS3_vEEvRS4_PT_, symObjAddr: 0x90FC, symBinAddr: 0x10000BADC, symSize: 0x2C }
  - { offsetInCU: 0x190D6, offset: 0x190D6, size: 0x8, addend: 0x0, symName: __ZNSt3__19allocatorIP5TokenE7destroyB7v160006EPS2_, symObjAddr: 0x913C, symBinAddr: 0x10000BB1C, symSize: 0x14 }
  - { offsetInCU: 0x1910A, offset: 0x1910A, size: 0x8, addend: 0x0, symName: __ZNSt3__19allocatorIP5TokenE10deallocateB7v160006EPS2_m, symObjAddr: 0x9150, symBinAddr: 0x10000BB30, symSize: 0x40 }
  - { offsetInCU: 0x1914C, offset: 0x1914C, size: 0x8, addend: 0x0, symName: __ZNSt3__117__compressed_pairIPP5TokenNS_9allocatorIS2_EEE6secondB7v160006Ev, symObjAddr: 0x9190, symBinAddr: 0x10000BB70, symSize: 0x24 }
  - { offsetInCU: 0x19172, offset: 0x19172, size: 0x8, addend: 0x0, symName: __ZNSt3__122__compressed_pair_elemINS_9allocatorIP5TokenEELi1ELb1EE5__getB7v160006Ev, symObjAddr: 0x91B4, symBinAddr: 0x10000BB94, symSize: 0x14 }
  - { offsetInCU: 0x19198, offset: 0x19198, size: 0x8, addend: 0x0, symName: __ZNKSt3__114__split_bufferIP5TokenNS_9allocatorIS2_EEE9__end_capB7v160006Ev, symObjAddr: 0x91C8, symBinAddr: 0x10000BBA8, symSize: 0x28 }
  - { offsetInCU: 0x191BE, offset: 0x191BE, size: 0x8, addend: 0x0, symName: __ZNKSt3__117__compressed_pairIPP5TokenNS_9allocatorIS2_EEE5firstB7v160006Ev, symObjAddr: 0x91F0, symBinAddr: 0x10000BBD0, symSize: 0x24 }
  - { offsetInCU: 0x191E4, offset: 0x191E4, size: 0x8, addend: 0x0, symName: __ZNKSt3__122__compressed_pair_elemIPP5TokenLi0ELb0EE5__getB7v160006Ev, symObjAddr: 0x9214, symBinAddr: 0x10000BBF4, symSize: 0x14 }
  - { offsetInCU: 0x1920A, offset: 0x1920A, size: 0x8, addend: 0x0, symName: __ZNKSt3__18ios_base5widthB7v160006Ev, symObjAddr: 0x9228, symBinAddr: 0x10000BC08, symSize: 0x18 }
  - { offsetInCU: 0x19232, offset: 0x19232, size: 0x8, addend: 0x0, symName: __ZNSt3__114numeric_limitsIlE3maxB7v160006Ev, symObjAddr: 0x9240, symBinAddr: 0x10000BC20, symSize: 0x14 }
  - { offsetInCU: 0x19246, offset: 0x19246, size: 0x8, addend: 0x0, symName: __ZNSt3__115basic_streambufIcNS_11char_traitsIcEEE5sgetcB7v160006Ev, symObjAddr: 0x9280, symBinAddr: 0x10000BC60, symSize: 0x70 }
  - { offsetInCU: 0x19299, offset: 0x19299, size: 0x8, addend: 0x0, symName: __ZNKSt3__15ctypeIcE2isB7v160006Ejc, symObjAddr: 0x92F0, symBinAddr: 0x10000BCD0, symSize: 0x7C }
  - { offsetInCU: 0x192DD, offset: 0x192DD, size: 0x8, addend: 0x0, symName: __ZNSt3__18ios_base5widthB7v160006El, symObjAddr: 0x936C, symBinAddr: 0x10000BD4C, symSize: 0x2C }
  - { offsetInCU: 0x19323, offset: 0x19323, size: 0x8, addend: 0x0, symName: __ZNSt3__123__libcpp_numeric_limitsIlLb1EE3maxB7v160006Ev, symObjAddr: 0x9398, symBinAddr: 0x10000BD78, symSize: 0x8 }
  - { offsetInCU: 0x19337, offset: 0x19337, size: 0x8, addend: 0x0, symName: __ZNSt3__112basic_stringIcNS_11char_traitsIcEENS_9allocatorIcEEEC2B7v160006IDnEEPKc, symObjAddr: 0x93A0, symBinAddr: 0x10000BD80, symSize: 0x60 }
  - { offsetInCU: 0x19375, offset: 0x19375, size: 0x8, addend: 0x0, symName: __ZNSt3__111char_traitsIcE6lengthEPKc, symObjAddr: 0x9400, symBinAddr: 0x10000BDE0, symSize: 0x34 }
  - { offsetInCU: 0x19398, offset: 0x19398, size: 0x8, addend: 0x0, symName: __ZNSt3__112basic_stringIcNS_11char_traitsIcEENS_9allocatorIcEEE15__make_iteratorB7v160006EPc, symObjAddr: 0x9458, symBinAddr: 0x10000BE38, symSize: 0x34 }
  - { offsetInCU: 0x193CD, offset: 0x193CD, size: 0x8, addend: 0x0, symName: __ZNSt3__112basic_stringIcNS_11char_traitsIcEENS_9allocatorIcEEE13__get_pointerB7v160006Ev, symObjAddr: 0x948C, symBinAddr: 0x10000BE6C, symSize: 0x54 }
  - { offsetInCU: 0x193F3, offset: 0x193F3, size: 0x8, addend: 0x0, symName: __ZNSt3__111__wrap_iterIPcEC1B7v160006EPKvS1_, symObjAddr: 0x94E0, symBinAddr: 0x10000BEC0, symSize: 0x3C }
  - { offsetInCU: 0x19439, offset: 0x19439, size: 0x8, addend: 0x0, symName: __ZNSt3__111__wrap_iterIPcEC2B7v160006EPKvS1_, symObjAddr: 0x951C, symBinAddr: 0x10000BEFC, symSize: 0x24 }
  - { offsetInCU: 0x1947F, offset: 0x1947F, size: 0x8, addend: 0x0, symName: __ZNKSt3__111__wrap_iterIPcEdeB7v160006Ev, symObjAddr: 0x9574, symBinAddr: 0x10000BF54, symSize: 0x18 }
  - { offsetInCU: 0x194A5, offset: 0x194A5, size: 0x8, addend: 0x0, symName: __ZNSt3__111__wrap_iterIPcEppB7v160006Ev, symObjAddr: 0x958C, symBinAddr: 0x10000BF6C, symSize: 0x20 }
  - { offsetInCU: 0x194CB, offset: 0x194CB, size: 0x8, addend: 0x0, symName: __ZNKSt3__15dequeI5TokenNS_9allocatorIS1_EEE12__back_spareB7v160006Ev, symObjAddr: 0x95F4, symBinAddr: 0x10000BFD4, symSize: 0x54 }
  - { offsetInCU: 0x194F1, offset: 0x194F1, size: 0x8, addend: 0x0, symName: __ZNSt3__15dequeI5TokenNS_9allocatorIS1_EEE19__add_back_capacityEv, symObjAddr: 0x9648, symBinAddr: 0x10000C028, symSize: 0x314 }
  - { offsetInCU: 0x195A6, offset: 0x195A6, size: 0x8, addend: 0x0, symName: __ZNSt3__116allocator_traitsINS_9allocatorI5TokenEEE9constructB7v160006IS2_JRNS_12basic_stringIcNS_11char_traitsIcEENS1_IcEEEESB_EvEEvRS3_PT_DpOT0_, symObjAddr: 0x995C, symBinAddr: 0x10000C33C, symSize: 0x3C }
  - { offsetInCU: 0x19611, offset: 0x19611, size: 0x8, addend: 0x0, symName: __ZNKSt3__15dequeI5TokenNS_9allocatorIS1_EEE10__capacityB7v160006Ev, symObjAddr: 0x9998, symBinAddr: 0x10000C378, symSize: 0x64 }
  - { offsetInCU: 0x19637, offset: 0x19637, size: 0x8, addend: 0x0, symName: __ZNKSt3__15dequeI5TokenNS_9allocatorIS1_EEE13__front_spareB7v160006Ev, symObjAddr: 0x99FC, symBinAddr: 0x10000C3DC, symSize: 0x18 }
  - { offsetInCU: 0x1965D, offset: 0x1965D, size: 0x8, addend: 0x0, symName: __ZNSt3__114__split_bufferIP5TokenNS_9allocatorIS2_EEE9push_backB7v160006ERKS2_, symObjAddr: 0x9A14, symBinAddr: 0x10000C3F4, symSize: 0x260 }
  - { offsetInCU: 0x196D5, offset: 0x196D5, size: 0x8, addend: 0x0, symName: __ZNKSt3__114__split_bufferIP5TokenNS_9allocatorIS2_EEE12__back_spareB7v160006Ev, symObjAddr: 0x9C74, symBinAddr: 0x10000C654, symSize: 0x40 }
  - { offsetInCU: 0x196FB, offset: 0x196FB, size: 0x8, addend: 0x0, symName: __ZNSt3__114__split_bufferIP5TokenNS_9allocatorIS2_EEE9push_backEOS2_, symObjAddr: 0x9CB4, symBinAddr: 0x10000C694, symSize: 0x260 }
  - { offsetInCU: 0x19773, offset: 0x19773, size: 0x8, addend: 0x0, symName: __ZNSt3__116allocator_traitsINS_9allocatorI5TokenEEE8allocateB7v160006ERS3_m, symObjAddr: 0x9F14, symBinAddr: 0x10000C8F4, symSize: 0x2C }
  - { offsetInCU: 0x197A6, offset: 0x197A6, size: 0x8, addend: 0x0, symName: __ZNSt3__114__split_bufferIP5TokenNS_9allocatorIS2_EEE10push_frontEOS2_, symObjAddr: 0x9F40, symBinAddr: 0x10000C920, symSize: 0x25C }
  - { offsetInCU: 0x1981E, offset: 0x1981E, size: 0x8, addend: 0x0, symName: __ZNSt3__114__split_bufferIP5TokenRNS_9allocatorIS2_EEEC1EmmS5_, symObjAddr: 0xA1C8, symBinAddr: 0x10000CBA8, symSize: 0x44 }
  - { offsetInCU: 0x19879, offset: 0x19879, size: 0x8, addend: 0x0, symName: __ZNSt3__122__allocator_destructorINS_9allocatorI5TokenEEEC1B7v160006ERS3_m, symObjAddr: 0xA20C, symBinAddr: 0x10000CBEC, symSize: 0x3C }
  - { offsetInCU: 0x1993E, offset: 0x1993E, size: 0x8, addend: 0x0, symName: __ZNSt3__110unique_ptrIP5TokenNS_22__allocator_destructorINS_9allocatorIS1_EEEEEC1B7v160006ILb1EvEES2_NS_16__dependent_typeINS_27__unique_ptr_deleter_sfinaeIS6_EEXT_EE20__good_rval_ref_typeE, symObjAddr: 0xA248, symBinAddr: 0x10000CC28, symSize: 0x3C }
  - { offsetInCU: 0x1998F, offset: 0x1998F, size: 0x8, addend: 0x0, symName: __ZNSt3__114__split_bufferIP5TokenRNS_9allocatorIS2_EEE9push_backEOS2_, symObjAddr: 0xA284, symBinAddr: 0x10000CC64, symSize: 0x260 }
  - { offsetInCU: 0x19A07, offset: 0x19A07, size: 0x8, addend: 0x0, symName: __ZNKSt3__110unique_ptrIP5TokenNS_22__allocator_destructorINS_9allocatorIS1_EEEEE3getB7v160006Ev, symObjAddr: 0xA4E4, symBinAddr: 0x10000CEC4, symSize: 0x28 }
  - { offsetInCU: 0x19A2D, offset: 0x19A2D, size: 0x8, addend: 0x0, symName: __ZNSt3__110unique_ptrIP5TokenNS_22__allocator_destructorINS_9allocatorIS1_EEEEE7releaseB7v160006Ev, symObjAddr: 0xA50C, symBinAddr: 0x10000CEEC, symSize: 0x44 }
  - { offsetInCU: 0x19A62, offset: 0x19A62, size: 0x8, addend: 0x0, symName: __ZNSt3__114__split_bufferIP5TokenRNS_9allocatorIS2_EEE10push_frontERKS2_, symObjAddr: 0xA550, symBinAddr: 0x10000CF30, symSize: 0x25C }
  - { offsetInCU: 0x19ADA, offset: 0x19ADA, size: 0x8, addend: 0x0, symName: __ZNSt3__114__split_bufferIP5TokenNS_9allocatorIS2_EEE9__end_capB7v160006Ev, symObjAddr: 0xA7E8, symBinAddr: 0x10000D1C8, symSize: 0x28 }
  - { offsetInCU: 0x19B00, offset: 0x19B00, size: 0x8, addend: 0x0, symName: __ZNSt3__114__split_bufferIP5TokenRNS_9allocatorIS2_EEE9__end_capB7v160006Ev, symObjAddr: 0xA810, symBinAddr: 0x10000D1F0, symSize: 0x28 }
  - { offsetInCU: 0x19B26, offset: 0x19B26, size: 0x8, addend: 0x0, symName: __ZNSt3__110unique_ptrIP5TokenNS_22__allocator_destructorINS_9allocatorIS1_EEEEED1B7v160006Ev, symObjAddr: 0xA838, symBinAddr: 0x10000D218, symSize: 0x2C }
  - { offsetInCU: 0x19B50, offset: 0x19B50, size: 0x8, addend: 0x0, symName: __ZNSt3__114__split_bufferIP5TokenRNS_9allocatorIS2_EEED1Ev, symObjAddr: 0xA864, symBinAddr: 0x10000D244, symSize: 0x2C }
  - { offsetInCU: 0x19B7C, offset: 0x19B7C, size: 0x8, addend: 0x0, symName: __ZNSt3__114__split_bufferIP5TokenRNS_9allocatorIS2_EEE18__construct_at_endINS_13move_iteratorIPS2_EEEENS_9enable_ifIXsr27__is_cpp17_forward_iteratorIT_EE5valueEvE4typeESC_SC_, symObjAddr: 0xA8D0, symBinAddr: 0x10000D2B0, symSize: 0xFC }
  - { offsetInCU: 0x19BD8, offset: 0x19BD8, size: 0x8, addend: 0x0, symName: __ZNSt3__113move_iteratorIPP5TokenEC1B7v160006ES3_, symObjAddr: 0xA9CC, symBinAddr: 0x10000D3AC, symSize: 0x34 }
  - { offsetInCU: 0x19C10, offset: 0x19C10, size: 0x8, addend: 0x0, symName: __ZNSt3__116allocator_traitsINS_9allocatorIP5TokenEEE9constructB7v160006IS3_JRKS3_EvEEvRS4_PT_DpOT0_, symObjAddr: 0xAA00, symBinAddr: 0x10000D3E0, symSize: 0x34 }
  - { offsetInCU: 0x19C8B, offset: 0x19C8B, size: 0x8, addend: 0x0, symName: __ZNKSt3__114__move_trivialclB7v160006IP5TokenS3_Li0EEENS_4pairIPT_PT0_EES6_S6_S8_, symObjAddr: 0xABD0, symBinAddr: 0x10000D5B0, symSize: 0x48 }
  - { offsetInCU: 0x19CF9, offset: 0x19CF9, size: 0x8, addend: 0x0, symName: __ZNSt3__14pairIPP5TokenS3_EC1B7v160006IRS3_S3_LPv0EEEOT_OT0_, symObjAddr: 0xAD98, symBinAddr: 0x10000D778, symSize: 0x3C }
  - { offsetInCU: 0x19D57, offset: 0x19D57, size: 0x8, addend: 0x0, symName: __ZNSt3__14pairIPP5TokenS3_EC2B7v160006IRS3_S3_LPv0EEEOT_OT0_, symObjAddr: 0xADD4, symBinAddr: 0x10000D7B4, symSize: 0x34 }
  - { offsetInCU: 0x19DB5, offset: 0x19DB5, size: 0x8, addend: 0x0, symName: __ZNSt3__118__unwrap_iter_implIPP5TokenLb1EE8__unwrapB7v160006ES3_, symObjAddr: 0xAE08, symBinAddr: 0x10000D7E8, symSize: 0x24 }
  - { offsetInCU: 0x19DD8, offset: 0x19DD8, size: 0x8, addend: 0x0, symName: __ZNSt3__14pairIPP5TokenS3_EC1B7v160006IS3_S3_LPv0EEEOT_OT0_, symObjAddr: 0xAE2C, symBinAddr: 0x10000D80C, symSize: 0x3C }
  - { offsetInCU: 0x19E36, offset: 0x19E36, size: 0x8, addend: 0x0, symName: __ZNSt3__14pairIPP5TokenS3_EC2B7v160006IS3_S3_LPv0EEEOT_OT0_, symObjAddr: 0xAE68, symBinAddr: 0x10000D848, symSize: 0x34 }
  - { offsetInCU: 0x19E94, offset: 0x19E94, size: 0x8, addend: 0x0, symName: __ZNSt3__118__unwrap_iter_implIPP5TokenLb1EE8__rewrapB7v160006ES3_S3_, symObjAddr: 0xAE9C, symBinAddr: 0x10000D87C, symSize: 0x50 }
  - { offsetInCU: 0x19ECF, offset: 0x19ECF, size: 0x8, addend: 0x0, symName: __ZNSt3__114__split_bufferIP5TokenRNS_9allocatorIS2_EEE21_ConstructTransactionC1B7v160006EPPS2_m, symObjAddr: 0xAF28, symBinAddr: 0x10000D908, symSize: 0x3C }
  - { offsetInCU: 0x19F15, offset: 0x19F15, size: 0x8, addend: 0x0, symName: __ZNSt3__116allocator_traitsINS_9allocatorIP5TokenEEE9constructB7v160006IS3_JS3_EvEEvRS4_PT_DpOT0_, symObjAddr: 0xAF64, symBinAddr: 0x10000D944, symSize: 0x34 }
  - { offsetInCU: 0x19F6C, offset: 0x19F6C, size: 0x8, addend: 0x0, symName: __ZNSt3__114__split_bufferIP5TokenRNS_9allocatorIS2_EEE7__allocB7v160006Ev, symObjAddr: 0xAF98, symBinAddr: 0x10000D978, symSize: 0x28 }
  - { offsetInCU: 0x19F92, offset: 0x19F92, size: 0x8, addend: 0x0, symName: __ZNKSt3__113move_iteratorIPP5TokenEdeB7v160006Ev, symObjAddr: 0xAFC0, symBinAddr: 0x10000D9A0, symSize: 0x18 }
  - { offsetInCU: 0x19FB8, offset: 0x19FB8, size: 0x8, addend: 0x0, symName: __ZNSt3__113move_iteratorIPP5TokenEppB7v160006Ev, symObjAddr: 0xAFD8, symBinAddr: 0x10000D9B8, symSize: 0x20 }
  - { offsetInCU: 0x19FDE, offset: 0x19FDE, size: 0x8, addend: 0x0, symName: __ZNSt3__114__split_bufferIP5TokenRNS_9allocatorIS2_EEE21_ConstructTransactionD1B7v160006Ev, symObjAddr: 0xAFF8, symBinAddr: 0x10000D9D8, symSize: 0x2C }
  - { offsetInCU: 0x1A008, offset: 0x1A008, size: 0x8, addend: 0x0, symName: __ZNKSt3__113move_iteratorIPP5TokenE4baseB7v160006Ev, symObjAddr: 0xB09C, symBinAddr: 0x10000DA7C, symSize: 0x18 }
  - { offsetInCU: 0x1A02E, offset: 0x1A02E, size: 0x8, addend: 0x0, symName: __ZNSt3__114__split_bufferIP5TokenRNS_9allocatorIS2_EEE21_ConstructTransactionC2B7v160006EPPS2_m, symObjAddr: 0xB0B4, symBinAddr: 0x10000DA94, symSize: 0x44 }
  - { offsetInCU: 0x1A074, offset: 0x1A074, size: 0x8, addend: 0x0, symName: __ZNSt3__19allocatorIP5TokenE9constructB7v160006IS2_JS2_EEEvPT_DpOT0_, symObjAddr: 0xB0F8, symBinAddr: 0x10000DAD8, symSize: 0x28 }
  - { offsetInCU: 0x1A0CA, offset: 0x1A0CA, size: 0x8, addend: 0x0, symName: __ZNSt3__117__compressed_pairIPP5TokenRNS_9allocatorIS2_EEE6secondB7v160006Ev, symObjAddr: 0xB120, symBinAddr: 0x10000DB00, symSize: 0x28 }
  - { offsetInCU: 0x1A0F0, offset: 0x1A0F0, size: 0x8, addend: 0x0, symName: __ZNSt3__122__compressed_pair_elemIRNS_9allocatorIP5TokenEELi1ELb0EE5__getB7v160006Ev, symObjAddr: 0xB148, symBinAddr: 0x10000DB28, symSize: 0x18 }
  - { offsetInCU: 0x1A116, offset: 0x1A116, size: 0x8, addend: 0x0, symName: __ZNSt3__114__split_bufferIP5TokenRNS_9allocatorIS2_EEE21_ConstructTransactionD2B7v160006Ev, symObjAddr: 0xB160, symBinAddr: 0x10000DB40, symSize: 0x20 }
  - { offsetInCU: 0x1A140, offset: 0x1A140, size: 0x8, addend: 0x0, symName: __ZNSt3__113move_iteratorIPP5TokenEC2B7v160006ES3_, symObjAddr: 0xB180, symBinAddr: 0x10000DB60, symSize: 0x20 }
  - { offsetInCU: 0x1A178, offset: 0x1A178, size: 0x8, addend: 0x0, symName: __ZNSt3__19allocatorIP5TokenE9constructB7v160006IS2_JRKS2_EEEvPT_DpOT0_, symObjAddr: 0xB1A0, symBinAddr: 0x10000DB80, symSize: 0x28 }
  - { offsetInCU: 0x1A1CE, offset: 0x1A1CE, size: 0x8, addend: 0x0, symName: __ZNSt3__19allocatorI5TokenE8allocateB7v160006Em, symObjAddr: 0xB1C8, symBinAddr: 0x10000DBA8, symSize: 0x5C }
  - { offsetInCU: 0x1A20C, offset: 0x1A20C, size: 0x8, addend: 0x0, symName: __ZNSt3__116allocator_traitsINS_9allocatorI5TokenEEE8max_sizeB7v160006IS3_vEEmRKS3_, symObjAddr: 0xB224, symBinAddr: 0x10000DC04, symSize: 0x24 }
  - { offsetInCU: 0x1A23A, offset: 0x1A23A, size: 0x8, addend: 0x0, symName: __ZNKSt3__19allocatorI5TokenE8max_sizeB7v160006Ev, symObjAddr: 0xB2A4, symBinAddr: 0x10000DC84, symSize: 0x18 }
  - { offsetInCU: 0x1A26A, offset: 0x1A26A, size: 0x8, addend: 0x0, symName: __ZNKSt3__123__move_backward_trivialclB7v160006IP5TokenS3_Li0EEENS_4pairIPT_PT0_EES6_S6_S8_, symObjAddr: 0xB45C, symBinAddr: 0x10000DE3C, symSize: 0x48 }
  - { offsetInCU: 0x1A2D2, offset: 0x1A2D2, size: 0x8, addend: 0x0, symName: __ZNSt3__14pairIPP5TokenS3_EC1B7v160006IRS3_S6_LPv0EEEOT_OT0_, symObjAddr: 0xB570, symBinAddr: 0x10000DF50, symSize: 0x3C }
  - { offsetInCU: 0x1A330, offset: 0x1A330, size: 0x8, addend: 0x0, symName: __ZNSt3__14pairIPP5TokenS3_EC2B7v160006IRS3_S6_LPv0EEEOT_OT0_, symObjAddr: 0xB5AC, symBinAddr: 0x10000DF8C, symSize: 0x34 }
  - { offsetInCU: 0x1A398, offset: 0x1A398, size: 0x8, addend: 0x0, symName: __ZNKSt3__16__lessImmEclB7v160006ERKmS3_, symObjAddr: 0xB634, symBinAddr: 0x10000E014, symSize: 0x34 }
  - { offsetInCU: 0x1A3DA, offset: 0x1A3DA, size: 0x8, addend: 0x0, symName: __ZNSt3__114__split_bufferIP5TokenRNS_9allocatorIS2_EEEC2EmmS5_, symObjAddr: 0xB668, symBinAddr: 0x10000E048, symSize: 0xD4 }
  - { offsetInCU: 0x1A44D, offset: 0x1A44D, size: 0x8, addend: 0x0, symName: __ZNSt3__117__compressed_pairIPP5TokenRNS_9allocatorIS2_EEEC1B7v160006IDnS6_EEOT_OT0_, symObjAddr: 0xB73C, symBinAddr: 0x10000E11C, symSize: 0x3C }
  - { offsetInCU: 0x1A4A5, offset: 0x1A4A5, size: 0x8, addend: 0x0, symName: __ZNSt3__117__compressed_pairIPP5TokenRNS_9allocatorIS2_EEEC2B7v160006IDnS6_EEOT_OT0_, symObjAddr: 0xB7B8, symBinAddr: 0x10000E198, symSize: 0x48 }
  - { offsetInCU: 0x1A4FD, offset: 0x1A4FD, size: 0x8, addend: 0x0, symName: __ZNSt3__122__compressed_pair_elemIRNS_9allocatorIP5TokenEELi1ELb0EEC2B7v160006IS5_vEEOT_, symObjAddr: 0xB800, symBinAddr: 0x10000E1E0, symSize: 0x20 }
  - { offsetInCU: 0x1A53F, offset: 0x1A53F, size: 0x8, addend: 0x0, symName: __ZNSt3__19allocatorIP5TokenE8allocateB7v160006Em, symObjAddr: 0xB820, symBinAddr: 0x10000E200, symSize: 0x58 }
  - { offsetInCU: 0x1A57D, offset: 0x1A57D, size: 0x8, addend: 0x0, symName: __ZNSt3__116allocator_traitsINS_9allocatorIP5TokenEEE8max_sizeB7v160006IS4_vEEmRKS4_, symObjAddr: 0xB878, symBinAddr: 0x10000E258, symSize: 0x24 }
  - { offsetInCU: 0x1A5AB, offset: 0x1A5AB, size: 0x8, addend: 0x0, symName: __ZNKSt3__19allocatorIP5TokenE8max_sizeB7v160006Ev, symObjAddr: 0xB89C, symBinAddr: 0x10000E27C, symSize: 0x14 }
  - { offsetInCU: 0x1A5D1, offset: 0x1A5D1, size: 0x8, addend: 0x0, symName: __ZNSt3__122__allocator_destructorINS_9allocatorI5TokenEEEC2B7v160006ERS3_m, symObjAddr: 0xB8B0, symBinAddr: 0x10000E290, symSize: 0x2C }
  - { offsetInCU: 0x1A617, offset: 0x1A617, size: 0x8, addend: 0x0, symName: __ZNSt3__110unique_ptrIP5TokenNS_22__allocator_destructorINS_9allocatorIS1_EEEEEC2B7v160006ILb1EvEES2_NS_16__dependent_typeINS_27__unique_ptr_deleter_sfinaeIS6_EEXT_EE20__good_rval_ref_typeE, symObjAddr: 0xB8DC, symBinAddr: 0x10000E2BC, symSize: 0x48 }
  - { offsetInCU: 0x1A668, offset: 0x1A668, size: 0x8, addend: 0x0, symName: __ZNSt3__117__compressed_pairIP5TokenNS_22__allocator_destructorINS_9allocatorIS1_EEEEEC1B7v160006IRS2_S6_EEOT_OT0_, symObjAddr: 0xB924, symBinAddr: 0x10000E304, symSize: 0x3C }
  - { offsetInCU: 0x1A6C0, offset: 0x1A6C0, size: 0x8, addend: 0x0, symName: __ZNSt3__117__compressed_pairIP5TokenNS_22__allocator_destructorINS_9allocatorIS1_EEEEEC2B7v160006IRS2_S6_EEOT_OT0_, symObjAddr: 0xB960, symBinAddr: 0x10000E340, symSize: 0x48 }
  - { offsetInCU: 0x1A718, offset: 0x1A718, size: 0x8, addend: 0x0, symName: __ZNSt3__122__compressed_pair_elemIP5TokenLi0ELb0EEC2B7v160006IRS2_vEEOT_, symObjAddr: 0xB9A8, symBinAddr: 0x10000E388, symSize: 0x24 }
  - { offsetInCU: 0x1A75A, offset: 0x1A75A, size: 0x8, addend: 0x0, symName: __ZNSt3__122__compressed_pair_elemINS_22__allocator_destructorINS_9allocatorI5TokenEEEELi1ELb0EEC2B7v160006IS5_vEEOT_, symObjAddr: 0xB9CC, symBinAddr: 0x10000E3AC, symSize: 0x24 }
  - { offsetInCU: 0x1A79C, offset: 0x1A79C, size: 0x8, addend: 0x0, symName: __ZNKSt3__117__compressed_pairIP5TokenNS_22__allocator_destructorINS_9allocatorIS1_EEEEE5firstB7v160006Ev, symObjAddr: 0xB9F0, symBinAddr: 0x10000E3D0, symSize: 0x24 }
  - { offsetInCU: 0x1A7C2, offset: 0x1A7C2, size: 0x8, addend: 0x0, symName: __ZNKSt3__122__compressed_pair_elemIP5TokenLi0ELb0EE5__getB7v160006Ev, symObjAddr: 0xBA14, symBinAddr: 0x10000E3F4, symSize: 0x14 }
  - { offsetInCU: 0x1A7E8, offset: 0x1A7E8, size: 0x8, addend: 0x0, symName: __ZNSt3__117__compressed_pairIP5TokenNS_22__allocator_destructorINS_9allocatorIS1_EEEEE5firstB7v160006Ev, symObjAddr: 0xBA28, symBinAddr: 0x10000E408, symSize: 0x24 }
  - { offsetInCU: 0x1A80E, offset: 0x1A80E, size: 0x8, addend: 0x0, symName: __ZNSt3__122__compressed_pair_elemIP5TokenLi0ELb0EE5__getB7v160006Ev, symObjAddr: 0xBA4C, symBinAddr: 0x10000E42C, symSize: 0x14 }
  - { offsetInCU: 0x1A834, offset: 0x1A834, size: 0x8, addend: 0x0, symName: __ZNSt3__117__compressed_pairIPP5TokenNS_9allocatorIS2_EEE5firstB7v160006Ev, symObjAddr: 0xBA60, symBinAddr: 0x10000E440, symSize: 0x24 }
  - { offsetInCU: 0x1A85A, offset: 0x1A85A, size: 0x8, addend: 0x0, symName: __ZNSt3__122__compressed_pair_elemIPP5TokenLi0ELb0EE5__getB7v160006Ev, symObjAddr: 0xBA84, symBinAddr: 0x10000E464, symSize: 0x14 }
  - { offsetInCU: 0x1A880, offset: 0x1A880, size: 0x8, addend: 0x0, symName: __ZNSt3__117__compressed_pairIPP5TokenRNS_9allocatorIS2_EEE5firstB7v160006Ev, symObjAddr: 0xBA98, symBinAddr: 0x10000E478, symSize: 0x24 }
  - { offsetInCU: 0x1A8A6, offset: 0x1A8A6, size: 0x8, addend: 0x0, symName: __ZNSt3__110unique_ptrIP5TokenNS_22__allocator_destructorINS_9allocatorIS1_EEEEED2B7v160006Ev, symObjAddr: 0xBABC, symBinAddr: 0x10000E49C, symSize: 0x30 }
  - { offsetInCU: 0x1A8D0, offset: 0x1A8D0, size: 0x8, addend: 0x0, symName: __ZNSt3__110unique_ptrIP5TokenNS_22__allocator_destructorINS_9allocatorIS1_EEEEE5resetB7v160006ES2_, symObjAddr: 0xBAEC, symBinAddr: 0x10000E4CC, symSize: 0x78 }
  - { offsetInCU: 0x1A914, offset: 0x1A914, size: 0x8, addend: 0x0, symName: __ZNSt3__117__compressed_pairIP5TokenNS_22__allocator_destructorINS_9allocatorIS1_EEEEE6secondB7v160006Ev, symObjAddr: 0xBB64, symBinAddr: 0x10000E544, symSize: 0x28 }
  - { offsetInCU: 0x1A93A, offset: 0x1A93A, size: 0x8, addend: 0x0, symName: __ZNSt3__122__allocator_destructorINS_9allocatorI5TokenEEEclB7v160006EPS2_, symObjAddr: 0xBB8C, symBinAddr: 0x10000E56C, symSize: 0x34 }
  - { offsetInCU: 0x1A96E, offset: 0x1A96E, size: 0x8, addend: 0x0, symName: __ZNSt3__122__compressed_pair_elemINS_22__allocator_destructorINS_9allocatorI5TokenEEEELi1ELb0EE5__getB7v160006Ev, symObjAddr: 0xBBC0, symBinAddr: 0x10000E5A0, symSize: 0x14 }
  - { offsetInCU: 0x1A994, offset: 0x1A994, size: 0x8, addend: 0x0, symName: __ZNSt3__114__split_bufferIP5TokenRNS_9allocatorIS2_EEED2Ev, symObjAddr: 0xBBD4, symBinAddr: 0x10000E5B4, symSize: 0x8C }
  - { offsetInCU: 0x1A9C0, offset: 0x1A9C0, size: 0x8, addend: 0x0, symName: __ZNSt3__114__split_bufferIP5TokenRNS_9allocatorIS2_EEE5clearB7v160006Ev, symObjAddr: 0xBC60, symBinAddr: 0x10000E640, symSize: 0x28 }
  - { offsetInCU: 0x1A9E6, offset: 0x1A9E6, size: 0x8, addend: 0x0, symName: __ZNKSt3__114__split_bufferIP5TokenRNS_9allocatorIS2_EEE8capacityB7v160006Ev, symObjAddr: 0xBC88, symBinAddr: 0x10000E668, symSize: 0x40 }
  - { offsetInCU: 0x1AA0C, offset: 0x1AA0C, size: 0x8, addend: 0x0, symName: __ZNSt3__114__split_bufferIP5TokenRNS_9allocatorIS2_EEE17__destruct_at_endB7v160006EPS2_, symObjAddr: 0xBCC8, symBinAddr: 0x10000E6A8, symSize: 0x2C }
  - { offsetInCU: 0x1AA40, offset: 0x1AA40, size: 0x8, addend: 0x0, symName: __ZNSt3__114__split_bufferIP5TokenRNS_9allocatorIS2_EEE17__destruct_at_endB7v160006EPS2_NS_17integral_constantIbLb0EEE, symObjAddr: 0xBCF4, symBinAddr: 0x10000E6D4, symSize: 0x80 }
  - { offsetInCU: 0x1AA80, offset: 0x1AA80, size: 0x8, addend: 0x0, symName: __ZNKSt3__114__split_bufferIP5TokenRNS_9allocatorIS2_EEE9__end_capB7v160006Ev, symObjAddr: 0xBD74, symBinAddr: 0x10000E754, symSize: 0x28 }
  - { offsetInCU: 0x1AAA6, offset: 0x1AAA6, size: 0x8, addend: 0x0, symName: __ZNKSt3__117__compressed_pairIPP5TokenRNS_9allocatorIS2_EEE5firstB7v160006Ev, symObjAddr: 0xBD9C, symBinAddr: 0x10000E77C, symSize: 0x24 }
  - { offsetInCU: 0x1AACC, offset: 0x1AACC, size: 0x8, addend: 0x0, symName: __ZNSt3__19allocatorI5TokenE9constructB7v160006IS1_JRNS_12basic_stringIcNS_11char_traitsIcEENS0_IcEEEES9_EEEvPT_DpOT0_, symObjAddr: 0xBDC0, symBinAddr: 0x10000E7A0, symSize: 0xAC }
  - { offsetInCU: 0x1AB35, offset: 0x1AB35, size: 0x8, addend: 0x0, symName: __ZN5TokenC1ENSt3__112basic_stringIcNS0_11char_traitsIcEENS0_9allocatorIcEEEES6_, symObjAddr: 0xBE6C, symBinAddr: 0x10000E84C, symSize: 0x3C }
  - { offsetInCU: 0x1AB7D, offset: 0x1AB7D, size: 0x8, addend: 0x0, symName: __ZN5TokenC2ENSt3__112basic_stringIcNS0_11char_traitsIcEENS0_9allocatorIcEEEES6_, symObjAddr: 0xBEA8, symBinAddr: 0x10000E888, symSize: 0x4C }
  - { offsetInCU: 0x1ABC5, offset: 0x1ABC5, size: 0x8, addend: 0x0, symName: __ZNSt3__112basic_stringIcNS_11char_traitsIcEENS_9allocatorIcEEEC1B7v160006EOS5_, symObjAddr: 0xBEF4, symBinAddr: 0x10000E8D4, symSize: 0x34 }
  - { offsetInCU: 0x1ABFE, offset: 0x1ABFE, size: 0x8, addend: 0x0, symName: __ZNSt3__112basic_stringIcNS_11char_traitsIcEENS_9allocatorIcEEEC2B7v160006EOS5_, symObjAddr: 0xBF28, symBinAddr: 0x10000E908, symSize: 0x80 }
  - { offsetInCU: 0x1AC37, offset: 0x1AC37, size: 0x8, addend: 0x0, symName: __ZNKSt3__15dequeINS0_I5TokenNS_9allocatorIS1_EEEENS2_IS4_EEE12__back_spareB7v160006Ev, symObjAddr: 0xBFBC, symBinAddr: 0x10000E99C, symSize: 0x54 }
  - { offsetInCU: 0x1AC5D, offset: 0x1AC5D, size: 0x8, addend: 0x0, symName: __ZNSt3__15dequeINS0_I5TokenNS_9allocatorIS1_EEEENS2_IS4_EEE19__add_back_capacityEv, symObjAddr: 0xC010, symBinAddr: 0x10000E9F0, symSize: 0x314 }
  - { offsetInCU: 0x1AD12, offset: 0x1AD12, size: 0x8, addend: 0x0, symName: __ZNSt3__116allocator_traitsINS_9allocatorINS_5dequeI5TokenNS1_IS3_EEEEEEE9constructB7v160006IS5_JRKS5_EvEEvRS6_PT_DpOT0_, symObjAddr: 0xC324, symBinAddr: 0x10000ED04, symSize: 0x34 }
  - { offsetInCU: 0x1AD69, offset: 0x1AD69, size: 0x8, addend: 0x0, symName: __ZNKSt3__15dequeINS0_I5TokenNS_9allocatorIS1_EEEENS2_IS4_EEE10__capacityB7v160006Ev, symObjAddr: 0xC358, symBinAddr: 0x10000ED38, symSize: 0x64 }
  - { offsetInCU: 0x1AD8F, offset: 0x1AD8F, size: 0x8, addend: 0x0, symName: __ZNKSt3__15dequeINS0_I5TokenNS_9allocatorIS1_EEEENS2_IS4_EEE13__front_spareB7v160006Ev, symObjAddr: 0xC3BC, symBinAddr: 0x10000ED9C, symSize: 0x18 }
  - { offsetInCU: 0x1ADB5, offset: 0x1ADB5, size: 0x8, addend: 0x0, symName: __ZNSt3__114__split_bufferIPNS_5dequeI5TokenNS_9allocatorIS2_EEEENS3_IS6_EEE9push_backB7v160006ERKS6_, symObjAddr: 0xC3D4, symBinAddr: 0x10000EDB4, symSize: 0x260 }
  - { offsetInCU: 0x1AE2D, offset: 0x1AE2D, size: 0x8, addend: 0x0, symName: __ZNKSt3__114__split_bufferIPNS_5dequeI5TokenNS_9allocatorIS2_EEEENS3_IS6_EEE12__back_spareB7v160006Ev, symObjAddr: 0xC634, symBinAddr: 0x10000F014, symSize: 0x40 }
  - { offsetInCU: 0x1AE53, offset: 0x1AE53, size: 0x8, addend: 0x0, symName: __ZNSt3__114__split_bufferIPNS_5dequeI5TokenNS_9allocatorIS2_EEEENS3_IS6_EEE9push_backEOS6_, symObjAddr: 0xC674, symBinAddr: 0x10000F054, symSize: 0x260 }
  - { offsetInCU: 0x1AECB, offset: 0x1AECB, size: 0x8, addend: 0x0, symName: __ZNSt3__116allocator_traitsINS_9allocatorINS_5dequeI5TokenNS1_IS3_EEEEEEE8allocateB7v160006ERS6_m, symObjAddr: 0xC8D4, symBinAddr: 0x10000F2B4, symSize: 0x2C }
  - { offsetInCU: 0x1AEFE, offset: 0x1AEFE, size: 0x8, addend: 0x0, symName: __ZNSt3__114__split_bufferIPNS_5dequeI5TokenNS_9allocatorIS2_EEEENS3_IS6_EEE10push_frontEOS6_, symObjAddr: 0xC900, symBinAddr: 0x10000F2E0, symSize: 0x25C }
  - { offsetInCU: 0x1AF76, offset: 0x1AF76, size: 0x8, addend: 0x0, symName: __ZNSt3__114__split_bufferIPNS_5dequeI5TokenNS_9allocatorIS2_EEEERNS3_IS6_EEEC1EmmS8_, symObjAddr: 0xCB5C, symBinAddr: 0x10000F53C, symSize: 0x44 }
  - { offsetInCU: 0x1AFD1, offset: 0x1AFD1, size: 0x8, addend: 0x0, symName: __ZNSt3__122__allocator_destructorINS_9allocatorINS_5dequeI5TokenNS1_IS3_EEEEEEEC1B7v160006ERS6_m, symObjAddr: 0xCBA0, symBinAddr: 0x10000F580, symSize: 0x3C }
  - { offsetInCU: 0x1B096, offset: 0x1B096, size: 0x8, addend: 0x0, symName: __ZNSt3__110unique_ptrIPNS_5dequeI5TokenNS_9allocatorIS2_EEEENS_22__allocator_destructorINS3_IS5_EEEEEC1B7v160006ILb1EvEES6_NS_16__dependent_typeINS_27__unique_ptr_deleter_sfinaeIS9_EEXT_EE20__good_rval_ref_typeE, symObjAddr: 0xCBDC, symBinAddr: 0x10000F5BC, symSize: 0x3C }
  - { offsetInCU: 0x1B0E7, offset: 0x1B0E7, size: 0x8, addend: 0x0, symName: __ZNSt3__114__split_bufferIPNS_5dequeI5TokenNS_9allocatorIS2_EEEERNS3_IS6_EEE9push_backEOS6_, symObjAddr: 0xCC18, symBinAddr: 0x10000F5F8, symSize: 0x260 }
  - { offsetInCU: 0x1B15F, offset: 0x1B15F, size: 0x8, addend: 0x0, symName: __ZNKSt3__110unique_ptrIPNS_5dequeI5TokenNS_9allocatorIS2_EEEENS_22__allocator_destructorINS3_IS5_EEEEE3getB7v160006Ev, symObjAddr: 0xCE78, symBinAddr: 0x10000F858, symSize: 0x28 }
  - { offsetInCU: 0x1B185, offset: 0x1B185, size: 0x8, addend: 0x0, symName: __ZNSt3__110unique_ptrIPNS_5dequeI5TokenNS_9allocatorIS2_EEEENS_22__allocator_destructorINS3_IS5_EEEEE7releaseB7v160006Ev, symObjAddr: 0xCEA0, symBinAddr: 0x10000F880, symSize: 0x44 }
  - { offsetInCU: 0x1B1BA, offset: 0x1B1BA, size: 0x8, addend: 0x0, symName: __ZNSt3__114__split_bufferIPNS_5dequeI5TokenNS_9allocatorIS2_EEEERNS3_IS6_EEE10push_frontERKS6_, symObjAddr: 0xCEE4, symBinAddr: 0x10000F8C4, symSize: 0x25C }
  - { offsetInCU: 0x1B232, offset: 0x1B232, size: 0x8, addend: 0x0, symName: __ZNSt3__114__split_bufferIPNS_5dequeI5TokenNS_9allocatorIS2_EEEENS3_IS6_EEE9__end_capB7v160006Ev, symObjAddr: 0xD17C, symBinAddr: 0x10000FB5C, symSize: 0x28 }
  - { offsetInCU: 0x1B258, offset: 0x1B258, size: 0x8, addend: 0x0, symName: __ZNSt3__114__split_bufferIPNS_5dequeI5TokenNS_9allocatorIS2_EEEERNS3_IS6_EEE9__end_capB7v160006Ev, symObjAddr: 0xD1A4, symBinAddr: 0x10000FB84, symSize: 0x28 }
  - { offsetInCU: 0x1B27E, offset: 0x1B27E, size: 0x8, addend: 0x0, symName: __ZNSt3__110unique_ptrIPNS_5dequeI5TokenNS_9allocatorIS2_EEEENS_22__allocator_destructorINS3_IS5_EEEEED1B7v160006Ev, symObjAddr: 0xD1CC, symBinAddr: 0x10000FBAC, symSize: 0x2C }
  - { offsetInCU: 0x1B2A8, offset: 0x1B2A8, size: 0x8, addend: 0x0, symName: __ZNSt3__114__split_bufferIPNS_5dequeI5TokenNS_9allocatorIS2_EEEERNS3_IS6_EEED1Ev, symObjAddr: 0xD1F8, symBinAddr: 0x10000FBD8, symSize: 0x2C }
  - { offsetInCU: 0x1B2D4, offset: 0x1B2D4, size: 0x8, addend: 0x0, symName: __ZNSt3__114__split_bufferIPNS_5dequeI5TokenNS_9allocatorIS2_EEEERNS3_IS6_EEE18__construct_at_endINS_13move_iteratorIPS6_EEEENS_9enable_ifIXsr27__is_cpp17_forward_iteratorIT_EE5valueEvE4typeESF_SF_, symObjAddr: 0xD264, symBinAddr: 0x10000FC44, symSize: 0xFC }
  - { offsetInCU: 0x1B330, offset: 0x1B330, size: 0x8, addend: 0x0, symName: __ZNSt3__113move_iteratorIPPNS_5dequeI5TokenNS_9allocatorIS2_EEEEEC1B7v160006ES7_, symObjAddr: 0xD360, symBinAddr: 0x10000FD40, symSize: 0x34 }
  - { offsetInCU: 0x1B368, offset: 0x1B368, size: 0x8, addend: 0x0, symName: __ZNSt3__116allocator_traitsINS_9allocatorIPNS_5dequeI5TokenNS1_IS3_EEEEEEE9constructB7v160006IS6_JRKS6_EvEEvRS7_PT_DpOT0_, symObjAddr: 0xD394, symBinAddr: 0x10000FD74, symSize: 0x34 }
  - { offsetInCU: 0x1B3D9, offset: 0x1B3D9, size: 0x8, addend: 0x0, symName: __ZNKSt3__114__move_trivialclB7v160006IPNS_5dequeI5TokenNS_9allocatorIS3_EEEES7_Li0EEENS_4pairIPT_PT0_EESA_SA_SC_, symObjAddr: 0xD564, symBinAddr: 0x10000FF44, symSize: 0x48 }
  - { offsetInCU: 0x1B447, offset: 0x1B447, size: 0x8, addend: 0x0, symName: __ZNSt3__14pairIPPNS_5dequeI5TokenNS_9allocatorIS2_EEEES7_EC1B7v160006IRS7_S7_LPv0EEEOT_OT0_, symObjAddr: 0xD72C, symBinAddr: 0x10001010C, symSize: 0x3C }
  - { offsetInCU: 0x1B4A5, offset: 0x1B4A5, size: 0x8, addend: 0x0, symName: __ZNSt3__14pairIPPNS_5dequeI5TokenNS_9allocatorIS2_EEEES7_EC2B7v160006IRS7_S7_LPv0EEEOT_OT0_, symObjAddr: 0xD768, symBinAddr: 0x100010148, symSize: 0x34 }
  - { offsetInCU: 0x1B503, offset: 0x1B503, size: 0x8, addend: 0x0, symName: __ZNSt3__118__unwrap_iter_implIPPNS_5dequeI5TokenNS_9allocatorIS2_EEEELb1EE8__unwrapB7v160006ES7_, symObjAddr: 0xD79C, symBinAddr: 0x10001017C, symSize: 0x24 }
  - { offsetInCU: 0x1B526, offset: 0x1B526, size: 0x8, addend: 0x0, symName: __ZNSt3__14pairIPPNS_5dequeI5TokenNS_9allocatorIS2_EEEES7_EC1B7v160006IS7_S7_LPv0EEEOT_OT0_, symObjAddr: 0xD7C0, symBinAddr: 0x1000101A0, symSize: 0x3C }
  - { offsetInCU: 0x1B584, offset: 0x1B584, size: 0x8, addend: 0x0, symName: __ZNSt3__14pairIPPNS_5dequeI5TokenNS_9allocatorIS2_EEEES7_EC2B7v160006IS7_S7_LPv0EEEOT_OT0_, symObjAddr: 0xD7FC, symBinAddr: 0x1000101DC, symSize: 0x34 }
  - { offsetInCU: 0x1B5E2, offset: 0x1B5E2, size: 0x8, addend: 0x0, symName: __ZNSt3__118__unwrap_iter_implIPPNS_5dequeI5TokenNS_9allocatorIS2_EEEELb1EE8__rewrapB7v160006ES7_S7_, symObjAddr: 0xD830, symBinAddr: 0x100010210, symSize: 0x50 }
  - { offsetInCU: 0x1B61D, offset: 0x1B61D, size: 0x8, addend: 0x0, symName: __ZNSt3__114__split_bufferIPNS_5dequeI5TokenNS_9allocatorIS2_EEEERNS3_IS6_EEE21_ConstructTransactionC1B7v160006EPPS6_m, symObjAddr: 0xD8BC, symBinAddr: 0x10001029C, symSize: 0x3C }
  - { offsetInCU: 0x1B663, offset: 0x1B663, size: 0x8, addend: 0x0, symName: __ZNSt3__116allocator_traitsINS_9allocatorIPNS_5dequeI5TokenNS1_IS3_EEEEEEE9constructB7v160006IS6_JS6_EvEEvRS7_PT_DpOT0_, symObjAddr: 0xD8F8, symBinAddr: 0x1000102D8, symSize: 0x34 }
  - { offsetInCU: 0x1B6BA, offset: 0x1B6BA, size: 0x8, addend: 0x0, symName: __ZNSt3__114__split_bufferIPNS_5dequeI5TokenNS_9allocatorIS2_EEEERNS3_IS6_EEE7__allocB7v160006Ev, symObjAddr: 0xD92C, symBinAddr: 0x10001030C, symSize: 0x28 }
  - { offsetInCU: 0x1B6E0, offset: 0x1B6E0, size: 0x8, addend: 0x0, symName: __ZNKSt3__113move_iteratorIPPNS_5dequeI5TokenNS_9allocatorIS2_EEEEEdeB7v160006Ev, symObjAddr: 0xD954, symBinAddr: 0x100010334, symSize: 0x18 }
  - { offsetInCU: 0x1B706, offset: 0x1B706, size: 0x8, addend: 0x0, symName: __ZNSt3__113move_iteratorIPPNS_5dequeI5TokenNS_9allocatorIS2_EEEEEppB7v160006Ev, symObjAddr: 0xD96C, symBinAddr: 0x10001034C, symSize: 0x20 }
  - { offsetInCU: 0x1B72C, offset: 0x1B72C, size: 0x8, addend: 0x0, symName: __ZNSt3__114__split_bufferIPNS_5dequeI5TokenNS_9allocatorIS2_EEEERNS3_IS6_EEE21_ConstructTransactionD1B7v160006Ev, symObjAddr: 0xD98C, symBinAddr: 0x10001036C, symSize: 0x2C }
  - { offsetInCU: 0x1B756, offset: 0x1B756, size: 0x8, addend: 0x0, symName: __ZNKSt3__113move_iteratorIPPNS_5dequeI5TokenNS_9allocatorIS2_EEEEE4baseB7v160006Ev, symObjAddr: 0xDA30, symBinAddr: 0x100010410, symSize: 0x18 }
  - { offsetInCU: 0x1B77C, offset: 0x1B77C, size: 0x8, addend: 0x0, symName: __ZNSt3__114__split_bufferIPNS_5dequeI5TokenNS_9allocatorIS2_EEEERNS3_IS6_EEE21_ConstructTransactionC2B7v160006EPPS6_m, symObjAddr: 0xDA48, symBinAddr: 0x100010428, symSize: 0x44 }
  - { offsetInCU: 0x1B7C2, offset: 0x1B7C2, size: 0x8, addend: 0x0, symName: __ZNSt3__19allocatorIPNS_5dequeI5TokenNS0_IS2_EEEEE9constructB7v160006IS5_JS5_EEEvPT_DpOT0_, symObjAddr: 0xDA8C, symBinAddr: 0x10001046C, symSize: 0x28 }
  - { offsetInCU: 0x1B818, offset: 0x1B818, size: 0x8, addend: 0x0, symName: __ZNSt3__117__compressed_pairIPPNS_5dequeI5TokenNS_9allocatorIS2_EEEERNS3_IS6_EEE6secondB7v160006Ev, symObjAddr: 0xDAB4, symBinAddr: 0x100010494, symSize: 0x28 }
  - { offsetInCU: 0x1B83E, offset: 0x1B83E, size: 0x8, addend: 0x0, symName: __ZNSt3__122__compressed_pair_elemIRNS_9allocatorIPNS_5dequeI5TokenNS1_IS3_EEEEEELi1ELb0EE5__getB7v160006Ev, symObjAddr: 0xDADC, symBinAddr: 0x1000104BC, symSize: 0x18 }
  - { offsetInCU: 0x1B864, offset: 0x1B864, size: 0x8, addend: 0x0, symName: __ZNSt3__114__split_bufferIPNS_5dequeI5TokenNS_9allocatorIS2_EEEERNS3_IS6_EEE21_ConstructTransactionD2B7v160006Ev, symObjAddr: 0xDAF4, symBinAddr: 0x1000104D4, symSize: 0x20 }
  - { offsetInCU: 0x1B88E, offset: 0x1B88E, size: 0x8, addend: 0x0, symName: __ZNSt3__113move_iteratorIPPNS_5dequeI5TokenNS_9allocatorIS2_EEEEEC2B7v160006ES7_, symObjAddr: 0xDB14, symBinAddr: 0x1000104F4, symSize: 0x20 }
  - { offsetInCU: 0x1B8C6, offset: 0x1B8C6, size: 0x8, addend: 0x0, symName: __ZNSt3__19allocatorIPNS_5dequeI5TokenNS0_IS2_EEEEE9constructB7v160006IS5_JRKS5_EEEvPT_DpOT0_, symObjAddr: 0xDB34, symBinAddr: 0x100010514, symSize: 0x28 }
  - { offsetInCU: 0x1B91C, offset: 0x1B91C, size: 0x8, addend: 0x0, symName: __ZNSt3__19allocatorINS_5dequeI5TokenNS0_IS2_EEEEE8allocateB7v160006Em, symObjAddr: 0xDB5C, symBinAddr: 0x10001053C, symSize: 0x5C }
  - { offsetInCU: 0x1B95A, offset: 0x1B95A, size: 0x8, addend: 0x0, symName: __ZNSt3__116allocator_traitsINS_9allocatorINS_5dequeI5TokenNS1_IS3_EEEEEEE8max_sizeB7v160006IS6_vEEmRKS6_, symObjAddr: 0xDBB8, symBinAddr: 0x100010598, symSize: 0x24 }
  - { offsetInCU: 0x1B988, offset: 0x1B988, size: 0x8, addend: 0x0, symName: __ZNKSt3__19allocatorINS_5dequeI5TokenNS0_IS2_EEEEE8max_sizeB7v160006Ev, symObjAddr: 0xDBDC, symBinAddr: 0x1000105BC, symSize: 0x18 }
  - { offsetInCU: 0x1B9AE, offset: 0x1B9AE, size: 0x8, addend: 0x0, symName: __ZNKSt3__123__move_backward_trivialclB7v160006IPNS_5dequeI5TokenNS_9allocatorIS3_EEEES7_Li0EEENS_4pairIPT_PT0_EESA_SA_SC_, symObjAddr: 0xDD70, symBinAddr: 0x100010750, symSize: 0x48 }
  - { offsetInCU: 0x1BA16, offset: 0x1BA16, size: 0x8, addend: 0x0, symName: __ZNSt3__14pairIPPNS_5dequeI5TokenNS_9allocatorIS2_EEEES7_EC1B7v160006IRS7_SA_LPv0EEEOT_OT0_, symObjAddr: 0xDE84, symBinAddr: 0x100010864, symSize: 0x3C }
  - { offsetInCU: 0x1BA74, offset: 0x1BA74, size: 0x8, addend: 0x0, symName: __ZNSt3__14pairIPPNS_5dequeI5TokenNS_9allocatorIS2_EEEES7_EC2B7v160006IRS7_SA_LPv0EEEOT_OT0_, symObjAddr: 0xDEC0, symBinAddr: 0x1000108A0, symSize: 0x34 }
  - { offsetInCU: 0x1BAD2, offset: 0x1BAD2, size: 0x8, addend: 0x0, symName: __ZNSt3__114__split_bufferIPNS_5dequeI5TokenNS_9allocatorIS2_EEEERNS3_IS6_EEEC2EmmS8_, symObjAddr: 0xDEF4, symBinAddr: 0x1000108D4, symSize: 0xD4 }
  - { offsetInCU: 0x1BB45, offset: 0x1BB45, size: 0x8, addend: 0x0, symName: __ZNSt3__117__compressed_pairIPPNS_5dequeI5TokenNS_9allocatorIS2_EEEERNS3_IS6_EEEC1B7v160006IDnS9_EEOT_OT0_, symObjAddr: 0xDFC8, symBinAddr: 0x1000109A8, symSize: 0x3C }
  - { offsetInCU: 0x1BB9D, offset: 0x1BB9D, size: 0x8, addend: 0x0, symName: __ZNSt3__117__compressed_pairIPPNS_5dequeI5TokenNS_9allocatorIS2_EEEERNS3_IS6_EEEC2B7v160006IDnS9_EEOT_OT0_, symObjAddr: 0xE044, symBinAddr: 0x100010A24, symSize: 0x48 }
  - { offsetInCU: 0x1BBF5, offset: 0x1BBF5, size: 0x8, addend: 0x0, symName: __ZNSt3__122__compressed_pair_elemIRNS_9allocatorIPNS_5dequeI5TokenNS1_IS3_EEEEEELi1ELb0EEC2B7v160006IS8_vEEOT_, symObjAddr: 0xE08C, symBinAddr: 0x100010A6C, symSize: 0x20 }
  - { offsetInCU: 0x1BC37, offset: 0x1BC37, size: 0x8, addend: 0x0, symName: __ZNSt3__19allocatorIPNS_5dequeI5TokenNS0_IS2_EEEEE8allocateB7v160006Em, symObjAddr: 0xE0AC, symBinAddr: 0x100010A8C, symSize: 0x58 }
  - { offsetInCU: 0x1BC75, offset: 0x1BC75, size: 0x8, addend: 0x0, symName: __ZNSt3__116allocator_traitsINS_9allocatorIPNS_5dequeI5TokenNS1_IS3_EEEEEEE8max_sizeB7v160006IS7_vEEmRKS7_, symObjAddr: 0xE104, symBinAddr: 0x100010AE4, symSize: 0x24 }
  - { offsetInCU: 0x1BCA3, offset: 0x1BCA3, size: 0x8, addend: 0x0, symName: __ZNKSt3__19allocatorIPNS_5dequeI5TokenNS0_IS2_EEEEE8max_sizeB7v160006Ev, symObjAddr: 0xE128, symBinAddr: 0x100010B08, symSize: 0x14 }
  - { offsetInCU: 0x1BCC9, offset: 0x1BCC9, size: 0x8, addend: 0x0, symName: __ZNSt3__122__allocator_destructorINS_9allocatorINS_5dequeI5TokenNS1_IS3_EEEEEEEC2B7v160006ERS6_m, symObjAddr: 0xE13C, symBinAddr: 0x100010B1C, symSize: 0x2C }
  - { offsetInCU: 0x1BD0F, offset: 0x1BD0F, size: 0x8, addend: 0x0, symName: __ZNSt3__110unique_ptrIPNS_5dequeI5TokenNS_9allocatorIS2_EEEENS_22__allocator_destructorINS3_IS5_EEEEEC2B7v160006ILb1EvEES6_NS_16__dependent_typeINS_27__unique_ptr_deleter_sfinaeIS9_EEXT_EE20__good_rval_ref_typeE, symObjAddr: 0xE168, symBinAddr: 0x100010B48, symSize: 0x48 }
  - { offsetInCU: 0x1BD60, offset: 0x1BD60, size: 0x8, addend: 0x0, symName: __ZNSt3__117__compressed_pairIPNS_5dequeI5TokenNS_9allocatorIS2_EEEENS_22__allocator_destructorINS3_IS5_EEEEEC1B7v160006IRS6_S9_EEOT_OT0_, symObjAddr: 0xE1B0, symBinAddr: 0x100010B90, symSize: 0x3C }
  - { offsetInCU: 0x1BDB8, offset: 0x1BDB8, size: 0x8, addend: 0x0, symName: __ZNSt3__117__compressed_pairIPNS_5dequeI5TokenNS_9allocatorIS2_EEEENS_22__allocator_destructorINS3_IS5_EEEEEC2B7v160006IRS6_S9_EEOT_OT0_, symObjAddr: 0xE1EC, symBinAddr: 0x100010BCC, symSize: 0x48 }
  - { offsetInCU: 0x1BE10, offset: 0x1BE10, size: 0x8, addend: 0x0, symName: __ZNSt3__122__compressed_pair_elemIPNS_5dequeI5TokenNS_9allocatorIS2_EEEELi0ELb0EEC2B7v160006IRS6_vEEOT_, symObjAddr: 0xE234, symBinAddr: 0x100010C14, symSize: 0x24 }
  - { offsetInCU: 0x1BE52, offset: 0x1BE52, size: 0x8, addend: 0x0, symName: __ZNSt3__122__compressed_pair_elemINS_22__allocator_destructorINS_9allocatorINS_5dequeI5TokenNS2_IS4_EEEEEEEELi1ELb0EEC2B7v160006IS8_vEEOT_, symObjAddr: 0xE258, symBinAddr: 0x100010C38, symSize: 0x24 }
  - { offsetInCU: 0x1BE94, offset: 0x1BE94, size: 0x8, addend: 0x0, symName: __ZNKSt3__117__compressed_pairIPNS_5dequeI5TokenNS_9allocatorIS2_EEEENS_22__allocator_destructorINS3_IS5_EEEEE5firstB7v160006Ev, symObjAddr: 0xE27C, symBinAddr: 0x100010C5C, symSize: 0x24 }
  - { offsetInCU: 0x1BEBA, offset: 0x1BEBA, size: 0x8, addend: 0x0, symName: __ZNKSt3__122__compressed_pair_elemIPNS_5dequeI5TokenNS_9allocatorIS2_EEEELi0ELb0EE5__getB7v160006Ev, symObjAddr: 0xE2A0, symBinAddr: 0x100010C80, symSize: 0x14 }
  - { offsetInCU: 0x1BEE0, offset: 0x1BEE0, size: 0x8, addend: 0x0, symName: __ZNSt3__117__compressed_pairIPNS_5dequeI5TokenNS_9allocatorIS2_EEEENS_22__allocator_destructorINS3_IS5_EEEEE5firstB7v160006Ev, symObjAddr: 0xE2B4, symBinAddr: 0x100010C94, symSize: 0x24 }
  - { offsetInCU: 0x1BF06, offset: 0x1BF06, size: 0x8, addend: 0x0, symName: __ZNSt3__122__compressed_pair_elemIPNS_5dequeI5TokenNS_9allocatorIS2_EEEELi0ELb0EE5__getB7v160006Ev, symObjAddr: 0xE2D8, symBinAddr: 0x100010CB8, symSize: 0x14 }
  - { offsetInCU: 0x1BF2C, offset: 0x1BF2C, size: 0x8, addend: 0x0, symName: __ZNSt3__117__compressed_pairIPPNS_5dequeI5TokenNS_9allocatorIS2_EEEENS3_IS6_EEE5firstB7v160006Ev, symObjAddr: 0xE2EC, symBinAddr: 0x100010CCC, symSize: 0x24 }
  - { offsetInCU: 0x1BF52, offset: 0x1BF52, size: 0x8, addend: 0x0, symName: __ZNSt3__122__compressed_pair_elemIPPNS_5dequeI5TokenNS_9allocatorIS2_EEEELi0ELb0EE5__getB7v160006Ev, symObjAddr: 0xE310, symBinAddr: 0x100010CF0, symSize: 0x14 }
  - { offsetInCU: 0x1BF78, offset: 0x1BF78, size: 0x8, addend: 0x0, symName: __ZNSt3__117__compressed_pairIPPNS_5dequeI5TokenNS_9allocatorIS2_EEEERNS3_IS6_EEE5firstB7v160006Ev, symObjAddr: 0xE324, symBinAddr: 0x100010D04, symSize: 0x24 }
  - { offsetInCU: 0x1BF9E, offset: 0x1BF9E, size: 0x8, addend: 0x0, symName: __ZNSt3__110unique_ptrIPNS_5dequeI5TokenNS_9allocatorIS2_EEEENS_22__allocator_destructorINS3_IS5_EEEEED2B7v160006Ev, symObjAddr: 0xE348, symBinAddr: 0x100010D28, symSize: 0x30 }
  - { offsetInCU: 0x1BFC8, offset: 0x1BFC8, size: 0x8, addend: 0x0, symName: __ZNSt3__110unique_ptrIPNS_5dequeI5TokenNS_9allocatorIS2_EEEENS_22__allocator_destructorINS3_IS5_EEEEE5resetB7v160006ES6_, symObjAddr: 0xE378, symBinAddr: 0x100010D58, symSize: 0x78 }
  - { offsetInCU: 0x1C00C, offset: 0x1C00C, size: 0x8, addend: 0x0, symName: __ZNSt3__117__compressed_pairIPNS_5dequeI5TokenNS_9allocatorIS2_EEEENS_22__allocator_destructorINS3_IS5_EEEEE6secondB7v160006Ev, symObjAddr: 0xE3F0, symBinAddr: 0x100010DD0, symSize: 0x28 }
  - { offsetInCU: 0x1C032, offset: 0x1C032, size: 0x8, addend: 0x0, symName: __ZNSt3__122__allocator_destructorINS_9allocatorINS_5dequeI5TokenNS1_IS3_EEEEEEEclB7v160006EPS5_, symObjAddr: 0xE418, symBinAddr: 0x100010DF8, symSize: 0x34 }
  - { offsetInCU: 0x1C066, offset: 0x1C066, size: 0x8, addend: 0x0, symName: __ZNSt3__122__compressed_pair_elemINS_22__allocator_destructorINS_9allocatorINS_5dequeI5TokenNS2_IS4_EEEEEEEELi1ELb0EE5__getB7v160006Ev, symObjAddr: 0xE44C, symBinAddr: 0x100010E2C, symSize: 0x14 }
  - { offsetInCU: 0x1C08C, offset: 0x1C08C, size: 0x8, addend: 0x0, symName: __ZNSt3__114__split_bufferIPNS_5dequeI5TokenNS_9allocatorIS2_EEEERNS3_IS6_EEED2Ev, symObjAddr: 0xE460, symBinAddr: 0x100010E40, symSize: 0x8C }
  - { offsetInCU: 0x1C0B8, offset: 0x1C0B8, size: 0x8, addend: 0x0, symName: __ZNSt3__114__split_bufferIPNS_5dequeI5TokenNS_9allocatorIS2_EEEERNS3_IS6_EEE5clearB7v160006Ev, symObjAddr: 0xE4EC, symBinAddr: 0x100010ECC, symSize: 0x28 }
  - { offsetInCU: 0x1C0DE, offset: 0x1C0DE, size: 0x8, addend: 0x0, symName: __ZNKSt3__114__split_bufferIPNS_5dequeI5TokenNS_9allocatorIS2_EEEERNS3_IS6_EEE8capacityB7v160006Ev, symObjAddr: 0xE514, symBinAddr: 0x100010EF4, symSize: 0x40 }
  - { offsetInCU: 0x1C104, offset: 0x1C104, size: 0x8, addend: 0x0, symName: __ZNSt3__114__split_bufferIPNS_5dequeI5TokenNS_9allocatorIS2_EEEERNS3_IS6_EEE17__destruct_at_endB7v160006EPS6_, symObjAddr: 0xE554, symBinAddr: 0x100010F34, symSize: 0x2C }
  - { offsetInCU: 0x1C138, offset: 0x1C138, size: 0x8, addend: 0x0, symName: __ZNSt3__114__split_bufferIPNS_5dequeI5TokenNS_9allocatorIS2_EEEERNS3_IS6_EEE17__destruct_at_endB7v160006EPS6_NS_17integral_constantIbLb0EEE, symObjAddr: 0xE580, symBinAddr: 0x100010F60, symSize: 0x80 }
  - { offsetInCU: 0x1C178, offset: 0x1C178, size: 0x8, addend: 0x0, symName: __ZNKSt3__114__split_bufferIPNS_5dequeI5TokenNS_9allocatorIS2_EEEERNS3_IS6_EEE9__end_capB7v160006Ev, symObjAddr: 0xE600, symBinAddr: 0x100010FE0, symSize: 0x28 }
  - { offsetInCU: 0x1C19E, offset: 0x1C19E, size: 0x8, addend: 0x0, symName: __ZNKSt3__117__compressed_pairIPPNS_5dequeI5TokenNS_9allocatorIS2_EEEERNS3_IS6_EEE5firstB7v160006Ev, symObjAddr: 0xE628, symBinAddr: 0x100011008, symSize: 0x24 }
  - { offsetInCU: 0x1C1C4, offset: 0x1C1C4, size: 0x8, addend: 0x0, symName: __ZNSt3__19allocatorINS_5dequeI5TokenNS0_IS2_EEEEE9constructB7v160006IS4_JRKS4_EEEvPT_DpOT0_, symObjAddr: 0xE64C, symBinAddr: 0x10001102C, symSize: 0x30 }
  - { offsetInCU: 0x1C21A, offset: 0x1C21A, size: 0x8, addend: 0x0, symName: __ZNSt3__15dequeI5TokenNS_9allocatorIS1_EEEC2ERKS4_, symObjAddr: 0xE67C, symBinAddr: 0x10001105C, symSize: 0xEC }
  - { offsetInCU: 0x1C255, offset: 0x1C255, size: 0x8, addend: 0x0, symName: __ZNSt3__116allocator_traitsINS_9allocatorI5TokenEEE37select_on_container_copy_constructionB7v160006IS3_vvEES3_RKS3_, symObjAddr: 0xE768, symBinAddr: 0x100011148, symSize: 0x10 }
  - { offsetInCU: 0x1C284, offset: 0x1C284, size: 0x8, addend: 0x0, symName: __ZNKSt3__15dequeI5TokenNS_9allocatorIS1_EEE7__allocB7v160006Ev, symObjAddr: 0xE778, symBinAddr: 0x100011158, symSize: 0x28 }
  - { offsetInCU: 0x1C2AA, offset: 0x1C2AA, size: 0x8, addend: 0x0, symName: __ZNSt3__19allocatorIP5TokenEC1B7v160006IS1_EERKNS0_IT_EE, symObjAddr: 0xE7A0, symBinAddr: 0x100011180, symSize: 0x34 }
  - { offsetInCU: 0x1C2E7, offset: 0x1C2E7, size: 0x8, addend: 0x0, symName: __ZNSt3__114__split_bufferIP5TokenNS_9allocatorIS2_EEEC1ERKS4_, symObjAddr: 0xE7D4, symBinAddr: 0x1000111B4, symSize: 0x34 }
  - { offsetInCU: 0x1C321, offset: 0x1C321, size: 0x8, addend: 0x0, symName: __ZNSt3__117__compressed_pairImNS_9allocatorI5TokenEEEC1B7v160006IiRNS1_IPS2_EEEEOT_OT0_, symObjAddr: 0xE808, symBinAddr: 0x1000111E8, symSize: 0x3C }
  - { offsetInCU: 0x1C379, offset: 0x1C379, size: 0x8, addend: 0x0, symName: __ZNSt3__15dequeI5TokenNS_9allocatorIS1_EEE8__appendINS_16__deque_iteratorIS1_PKS1_RS7_PKS8_lLl85EEEEEvT_SD_PNS_9enable_ifIXsr27__is_cpp17_forward_iteratorISD_EE5valueEvE4typeE, symObjAddr: 0xE844, symBinAddr: 0x100011224, symSize: 0x248 }
  - { offsetInCU: 0x1C468, offset: 0x1C468, size: 0x8, addend: 0x0, symName: __ZNKSt3__117__compressed_pairImNS_9allocatorI5TokenEEE6secondB7v160006Ev, symObjAddr: 0xEA8C, symBinAddr: 0x10001146C, symSize: 0x24 }
  - { offsetInCU: 0x1C48E, offset: 0x1C48E, size: 0x8, addend: 0x0, symName: __ZNKSt3__122__compressed_pair_elemINS_9allocatorI5TokenEELi1ELb1EE5__getB7v160006Ev, symObjAddr: 0xEAB0, symBinAddr: 0x100011490, symSize: 0x14 }
  - { offsetInCU: 0x1C4B4, offset: 0x1C4B4, size: 0x8, addend: 0x0, symName: __ZNSt3__19allocatorIP5TokenEC2B7v160006IS1_EERKNS0_IT_EE, symObjAddr: 0xEAC4, symBinAddr: 0x1000114A4, symSize: 0x30 }
  - { offsetInCU: 0x1C4F1, offset: 0x1C4F1, size: 0x8, addend: 0x0, symName: __ZNSt3__114__split_bufferIP5TokenNS_9allocatorIS2_EEEC2ERKS4_, symObjAddr: 0xEAF4, symBinAddr: 0x1000114D4, symSize: 0x4C }
  - { offsetInCU: 0x1C52B, offset: 0x1C52B, size: 0x8, addend: 0x0, symName: __ZNSt3__117__compressed_pairIPP5TokenNS_9allocatorIS2_EEEC1B7v160006IDnRKS5_EEOT_OT0_, symObjAddr: 0xEB40, symBinAddr: 0x100011520, symSize: 0x3C }
  - { offsetInCU: 0x1C583, offset: 0x1C583, size: 0x8, addend: 0x0, symName: __ZNSt3__117__compressed_pairIPP5TokenNS_9allocatorIS2_EEEC2B7v160006IDnRKS5_EEOT_OT0_, symObjAddr: 0xEB7C, symBinAddr: 0x10001155C, symSize: 0x44 }
  - { offsetInCU: 0x1C5DB, offset: 0x1C5DB, size: 0x8, addend: 0x0, symName: __ZNSt3__122__compressed_pair_elemINS_9allocatorIP5TokenEELi1ELb1EEC2B7v160006IRKS4_vEEOT_, symObjAddr: 0xEBC0, symBinAddr: 0x1000115A0, symSize: 0x18 }
  - { offsetInCU: 0x1C61D, offset: 0x1C61D, size: 0x8, addend: 0x0, symName: __ZNSt3__117__compressed_pairImNS_9allocatorI5TokenEEEC2B7v160006IiRNS1_IPS2_EEEEOT_OT0_, symObjAddr: 0xEBD8, symBinAddr: 0x1000115B8, symSize: 0x44 }
  - { offsetInCU: 0x1C675, offset: 0x1C675, size: 0x8, addend: 0x0, symName: __ZNSt3__122__compressed_pair_elemINS_9allocatorI5TokenEELi1ELb1EEC2B7v160006IRNS1_IPS2_EEvEEOT_, symObjAddr: 0xEC1C, symBinAddr: 0x1000115FC, symSize: 0x34 }
  - { offsetInCU: 0x1C6B7, offset: 0x1C6B7, size: 0x8, addend: 0x0, symName: __ZNSt3__19allocatorI5TokenEC2B7v160006IPS1_EERKNS0_IT_EE, symObjAddr: 0xEC50, symBinAddr: 0x100011630, symSize: 0x30 }
  - { offsetInCU: 0x1C6F4, offset: 0x1C6F4, size: 0x8, addend: 0x0, symName: __ZNSt3__15dequeI5TokenNS_9allocatorIS1_EEE19__add_back_capacityEm, symObjAddr: 0xECCC, symBinAddr: 0x1000116AC, symSize: 0x5BC }
  - { offsetInCU: 0x1C7F5, offset: 0x1C7F5, size: 0x8, addend: 0x0, symName: __ZNKSt3__116__deque_iteratorI5TokenPS1_RS1_PS2_lLl85EEplB7v160006El, symObjAddr: 0xF288, symBinAddr: 0x100011C68, symSize: 0x40 }
  - { offsetInCU: 0x1C85C, offset: 0x1C85C, size: 0x8, addend: 0x0, symName: __ZNSt3__15dequeI5TokenNS_9allocatorIS1_EEE13__deque_rangeC1B7v160006ENS_16__deque_iteratorIS1_PS1_RS1_PS7_lLl85EEESA_, symObjAddr: 0xF2C8, symBinAddr: 0x100011CA8, symSize: 0x4C }
  - { offsetInCU: 0x1C8A4, offset: 0x1C8A4, size: 0x8, addend: 0x0, symName: __ZNKSt3__15dequeI5TokenNS_9allocatorIS1_EEE13__deque_range5beginB7v160006Ev, symObjAddr: 0xF314, symBinAddr: 0x100011CF4, symSize: 0x24 }
  - { offsetInCU: 0x1C8CA, offset: 0x1C8CA, size: 0x8, addend: 0x0, symName: __ZNKSt3__15dequeI5TokenNS_9allocatorIS1_EEE13__deque_range3endB7v160006Ev, symObjAddr: 0xF338, symBinAddr: 0x100011D18, symSize: 0x50 }
  - { offsetInCU: 0x1C8F0, offset: 0x1C8F0, size: 0x8, addend: 0x0, symName: __ZNKSt3__15dequeI5TokenNS_9allocatorIS1_EEE13__deque_rangedeB7v160006Ev, symObjAddr: 0xF3BC, symBinAddr: 0x100011D9C, symSize: 0x7C }
  - { offsetInCU: 0x1C920, offset: 0x1C920, size: 0x8, addend: 0x0, symName: __ZNSt3__15dequeI5TokenNS_9allocatorIS1_EEE21_ConstructTransactionC1B7v160006EPS4_RNS4_19__deque_block_rangeE, symObjAddr: 0xF438, symBinAddr: 0x100011E18, symSize: 0x3C }
  - { offsetInCU: 0x1C968, offset: 0x1C968, size: 0x8, addend: 0x0, symName: __ZNSt3__116allocator_traitsINS_9allocatorI5TokenEEE9constructB7v160006IS2_JRKS2_EvEEvRS3_PT_DpOT0_, symObjAddr: 0xF474, symBinAddr: 0x100011E54, symSize: 0x34 }
  - { offsetInCU: 0x1C9BF, offset: 0x1C9BF, size: 0x8, addend: 0x0, symName: __ZNSt3__15dequeI5TokenNS_9allocatorIS1_EEE21_ConstructTransactionD1B7v160006Ev, symObjAddr: 0xF4BC, symBinAddr: 0x100011E9C, symSize: 0x2C }
  - { offsetInCU: 0x1C9E9, offset: 0x1C9E9, size: 0x8, addend: 0x0, symName: __ZNSt3__15dequeI5TokenNS_9allocatorIS1_EEE13__deque_rangeppB7v160006Ev, symObjAddr: 0xF4E8, symBinAddr: 0x100011EC8, symSize: 0x64 }
  - { offsetInCU: 0x1CA0F, offset: 0x1CA0F, size: 0x8, addend: 0x0, symName: __ZNSt3__15dequeI5TokenNS_9allocatorIS1_EEE18__recommend_blocksB7v160006Em, symObjAddr: 0xF634, symBinAddr: 0x100012014, symSize: 0x40 }
  - { offsetInCU: 0x1CA33, offset: 0x1CA33, size: 0x8, addend: 0x0, symName: __ZNSt3__114__split_bufferIP5TokenRNS_9allocatorIS2_EEE5beginB7v160006Ev, symObjAddr: 0xF6A0, symBinAddr: 0x100012080, symSize: 0x18 }
  - { offsetInCU: 0x1CA59, offset: 0x1CA59, size: 0x8, addend: 0x0, symName: __ZNSt3__114__split_bufferIP5TokenRNS_9allocatorIS2_EEE3endB7v160006Ev, symObjAddr: 0xF6B8, symBinAddr: 0x100012098, symSize: 0x18 }
  - { offsetInCU: 0x1CA7F, offset: 0x1CA7F, size: 0x8, addend: 0x0, symName: __ZNSt3__114__split_bufferIP5TokenRNS_9allocatorIS2_EEE9push_backB7v160006ERKS2_, symObjAddr: 0xF6D0, symBinAddr: 0x1000120B0, symSize: 0x260 }
  - { offsetInCU: 0x1CAF7, offset: 0x1CAF7, size: 0x8, addend: 0x0, symName: __ZNSt3__116__deque_iteratorI5TokenPS1_RS1_PS2_lLl85EEpLB7v160006El, symObjAddr: 0xF984, symBinAddr: 0x100012364, symSize: 0x120 }
  - { offsetInCU: 0x1CB49, offset: 0x1CB49, size: 0x8, addend: 0x0, symName: __ZNSt3__15dequeI5TokenNS_9allocatorIS1_EEE13__deque_rangeC2B7v160006ENS_16__deque_iteratorIS1_PS1_RS1_PS7_lLl85EEESA_, symObjAddr: 0xFAA4, symBinAddr: 0x100012484, symSize: 0x34 }
  - { offsetInCU: 0x1CB91, offset: 0x1CB91, size: 0x8, addend: 0x0, symName: __ZNSt3__15dequeI5TokenNS_9allocatorIS1_EEE19__deque_block_rangeC1B7v160006EPS1_S6_, symObjAddr: 0xFB08, symBinAddr: 0x1000124E8, symSize: 0x3C }
  - { offsetInCU: 0x1CBD9, offset: 0x1CBD9, size: 0x8, addend: 0x0, symName: __ZNSt3__15dequeI5TokenNS_9allocatorIS1_EEE19__deque_block_rangeC2B7v160006EPS1_S6_, symObjAddr: 0xFB44, symBinAddr: 0x100012524, symSize: 0x2C }
  - { offsetInCU: 0x1CC21, offset: 0x1CC21, size: 0x8, addend: 0x0, symName: __ZNSt3__15dequeI5TokenNS_9allocatorIS1_EEE21_ConstructTransactionC2B7v160006EPS4_RNS4_19__deque_block_rangeE, symObjAddr: 0xFB70, symBinAddr: 0x100012550, symSize: 0x48 }
  - { offsetInCU: 0x1CC69, offset: 0x1CC69, size: 0x8, addend: 0x0, symName: __ZNSt3__19allocatorI5TokenE9constructB7v160006IS1_JRKS1_EEEvPT_DpOT0_, symObjAddr: 0xFBB8, symBinAddr: 0x100012598, symSize: 0x30 }
  - { offsetInCU: 0x1CCBF, offset: 0x1CCBF, size: 0x8, addend: 0x0, symName: __ZNSt3__15dequeI5TokenNS_9allocatorIS1_EEE21_ConstructTransactionD2B7v160006Ev, symObjAddr: 0xFBE8, symBinAddr: 0x1000125C8, symSize: 0x5C }
  - { offsetInCU: 0x1CCE9, offset: 0x1CCE9, size: 0x8, addend: 0x0, symName: __ZNSt3__15dequeI5TokenNS_9allocatorIS1_EEE26__maybe_remove_front_spareB7v160006Eb, symObjAddr: 0xFC44, symBinAddr: 0x100012624, symSize: 0xDC }
  - { offsetInCU: 0x1CD1E, offset: 0x1CD1E, size: 0x8, addend: 0x0, symName: __ZNKSt3__15dequeI5TokenNS_9allocatorIS1_EEE20__front_spare_blocksB7v160006Ev, symObjAddr: 0xFD20, symBinAddr: 0x100012700, symSize: 0x2C }
  - { offsetInCU: 0x1CD44, offset: 0x1CD44, size: 0x8, addend: 0x0, symName: __ZNSt3__16vectorINS_12basic_stringIcNS_11char_traitsIcEENS_9allocatorIcEEEENS4_IS6_EEE11__make_iterB7v160006EPS6_, symObjAddr: 0xFD4C, symBinAddr: 0x10001272C, symSize: 0x34 }
  - { offsetInCU: 0x1CD79, offset: 0x1CD79, size: 0x8, addend: 0x0, symName: __ZNSt3__111__wrap_iterIPNS_12basic_stringIcNS_11char_traitsIcEENS_9allocatorIcEEEEEC1B7v160006EPKvS7_, symObjAddr: 0xFD80, symBinAddr: 0x100012760, symSize: 0x3C }
  - { offsetInCU: 0x1CDBF, offset: 0x1CDBF, size: 0x8, addend: 0x0, symName: __ZNSt3__111__wrap_iterIPNS_12basic_stringIcNS_11char_traitsIcEENS_9allocatorIcEEEEEC2B7v160006EPKvS7_, symObjAddr: 0xFDBC, symBinAddr: 0x10001279C, symSize: 0x24 }
  - { offsetInCU: 0x1CE05, offset: 0x1CE05, size: 0x8, addend: 0x0, symName: __ZNKSt3__111__wrap_iterIPNS_12basic_stringIcNS_11char_traitsIcEENS_9allocatorIcEEEEEdeB7v160006Ev, symObjAddr: 0xFF28, symBinAddr: 0x100012908, symSize: 0x18 }
  - { offsetInCU: 0x1CE2B, offset: 0x1CE2B, size: 0x8, addend: 0x0, symName: __ZNSt3__111__wrap_iterIPNS_12basic_stringIcNS_11char_traitsIcEENS_9allocatorIcEEEEEppB7v160006Ev, symObjAddr: 0xFF40, symBinAddr: 0x100012920, symSize: 0x20 }
  - { offsetInCU: 0x1CE51, offset: 0x1CE51, size: 0x8, addend: 0x0, symName: __ZNSt3__111char_traitsIcE7compareEPKcS3_m, symObjAddr: 0xFF60, symBinAddr: 0x100012940, symSize: 0x6C }
  - { offsetInCU: 0x1CE90, offset: 0x1CE90, size: 0x8, addend: 0x0, symName: __ZNSt3__16vectorINS_12basic_stringIcNS_11char_traitsIcEENS_9allocatorIcEEEENS4_IS6_EEE9__end_capB7v160006Ev, symObjAddr: 0x10078, symBinAddr: 0x100012A58, symSize: 0x28 }
  - { offsetInCU: 0x1CEB6, offset: 0x1CEB6, size: 0x8, addend: 0x0, symName: __ZNSt3__16vectorINS_12basic_stringIcNS_11char_traitsIcEENS_9allocatorIcEEEENS4_IS6_EEE22__construct_one_at_endB7v160006IJRKS6_EEEvDpOT_, symObjAddr: 0x100A0, symBinAddr: 0x100012A80, symSize: 0x90 }
  - { offsetInCU: 0x1CF05, offset: 0x1CF05, size: 0x8, addend: 0x0, symName: __ZNSt3__16vectorINS_12basic_stringIcNS_11char_traitsIcEENS_9allocatorIcEEEENS4_IS6_EEE21__push_back_slow_pathIRKS6_EEvOT_, symObjAddr: 0x10130, symBinAddr: 0x100012B10, symSize: 0xD8 }
  - { offsetInCU: 0x1CF63, offset: 0x1CF63, size: 0x8, addend: 0x0, symName: __ZNSt3__117__compressed_pairIPNS_12basic_stringIcNS_11char_traitsIcEENS_9allocatorIcEEEENS4_IS6_EEE5firstB7v160006Ev, symObjAddr: 0x10208, symBinAddr: 0x100012BE8, symSize: 0x24 }
  - { offsetInCU: 0x1CF89, offset: 0x1CF89, size: 0x8, addend: 0x0, symName: __ZNSt3__122__compressed_pair_elemIPNS_12basic_stringIcNS_11char_traitsIcEENS_9allocatorIcEEEELi0ELb0EE5__getB7v160006Ev, symObjAddr: 0x1022C, symBinAddr: 0x100012C0C, symSize: 0x14 }
  - { offsetInCU: 0x1CFC8, offset: 0x1CFC8, size: 0x8, addend: 0x0, symName: __ZNSt3__16vectorINS_12basic_stringIcNS_11char_traitsIcEENS_9allocatorIcEEEENS4_IS6_EEE21_ConstructTransactionC1B7v160006ERS8_m, symObjAddr: 0x10240, symBinAddr: 0x100012C20, symSize: 0x3C }
  - { offsetInCU: 0x1D010, offset: 0x1D010, size: 0x8, addend: 0x0, symName: __ZNSt3__116allocator_traitsINS_9allocatorINS_12basic_stringIcNS_11char_traitsIcEENS1_IcEEEEEEE9constructB7v160006IS6_JRKS6_EvEEvRS7_PT_DpOT0_, symObjAddr: 0x1027C, symBinAddr: 0x100012C5C, symSize: 0x34 }
  - { offsetInCU: 0x1D067, offset: 0x1D067, size: 0x8, addend: 0x0, symName: __ZNSt3__16vectorINS_12basic_stringIcNS_11char_traitsIcEENS_9allocatorIcEEEENS4_IS6_EEE21_ConstructTransactionD1B7v160006Ev, symObjAddr: 0x102B0, symBinAddr: 0x100012C90, symSize: 0x2C }
  - { offsetInCU: 0x1D091, offset: 0x1D091, size: 0x8, addend: 0x0, symName: __ZNSt3__16vectorINS_12basic_stringIcNS_11char_traitsIcEENS_9allocatorIcEEEENS4_IS6_EEE21_ConstructTransactionC2B7v160006ERS8_m, symObjAddr: 0x102DC, symBinAddr: 0x100012CBC, symSize: 0x4C }
  - { offsetInCU: 0x1D0D9, offset: 0x1D0D9, size: 0x8, addend: 0x0, symName: __ZNSt3__19allocatorINS_12basic_stringIcNS_11char_traitsIcEENS0_IcEEEEE9constructB7v160006IS5_JRKS5_EEEvPT_DpOT0_, symObjAddr: 0x10328, symBinAddr: 0x100012D08, symSize: 0x30 }
  - { offsetInCU: 0x1D12F, offset: 0x1D12F, size: 0x8, addend: 0x0, symName: __ZNSt3__16vectorINS_12basic_stringIcNS_11char_traitsIcEENS_9allocatorIcEEEENS4_IS6_EEE21_ConstructTransactionD2B7v160006Ev, symObjAddr: 0x10358, symBinAddr: 0x100012D38, symSize: 0x20 }
  - { offsetInCU: 0x1D159, offset: 0x1D159, size: 0x8, addend: 0x0, symName: __ZNKSt3__16vectorINS_12basic_stringIcNS_11char_traitsIcEENS_9allocatorIcEEEENS4_IS6_EEE11__recommendB7v160006Em, symObjAddr: 0x10378, symBinAddr: 0x100012D58, symSize: 0xB4 }
  - { offsetInCU: 0x1D1AE, offset: 0x1D1AE, size: 0x8, addend: 0x0, symName: __ZNSt3__114__split_bufferINS_12basic_stringIcNS_11char_traitsIcEENS_9allocatorIcEEEERNS4_IS6_EEEC1EmmS8_, symObjAddr: 0x1042C, symBinAddr: 0x100012E0C, symSize: 0x44 }
  - { offsetInCU: 0x1D204, offset: 0x1D204, size: 0x8, addend: 0x0, symName: __ZNSt3__114__split_bufferINS_12basic_stringIcNS_11char_traitsIcEENS_9allocatorIcEEEERNS4_IS6_EEED1Ev, symObjAddr: 0x10588, symBinAddr: 0x100012F68, symSize: 0x2C }
  - { offsetInCU: 0x1D230, offset: 0x1D230, size: 0x8, addend: 0x0, symName: __ZNKSt3__16vectorINS_12basic_stringIcNS_11char_traitsIcEENS_9allocatorIcEEEENS4_IS6_EEE8max_sizeEv, symObjAddr: 0x105B4, symBinAddr: 0x100012F94, symSize: 0x60 }
  - { offsetInCU: 0x1D258, offset: 0x1D258, size: 0x8, addend: 0x0, symName: __ZNKSt3__16vectorINS_12basic_stringIcNS_11char_traitsIcEENS_9allocatorIcEEEENS4_IS6_EEE20__throw_length_errorB7v160006Ev, symObjAddr: 0x10614, symBinAddr: 0x100012FF4, symSize: 0x1C }
  - { offsetInCU: 0x1D288, offset: 0x1D288, size: 0x8, addend: 0x0, symName: __ZNSt3__116allocator_traitsINS_9allocatorINS_12basic_stringIcNS_11char_traitsIcEENS1_IcEEEEEEE8max_sizeB7v160006IS7_vEEmRKS7_, symObjAddr: 0x10630, symBinAddr: 0x100013010, symSize: 0x24 }
  - { offsetInCU: 0x1D2B6, offset: 0x1D2B6, size: 0x8, addend: 0x0, symName: __ZNKSt3__16vectorINS_12basic_stringIcNS_11char_traitsIcEENS_9allocatorIcEEEENS4_IS6_EEE7__allocB7v160006Ev, symObjAddr: 0x10654, symBinAddr: 0x100013034, symSize: 0x28 }
  - { offsetInCU: 0x1D2DC, offset: 0x1D2DC, size: 0x8, addend: 0x0, symName: __ZNKSt3__19allocatorINS_12basic_stringIcNS_11char_traitsIcEENS0_IcEEEEE8max_sizeB7v160006Ev, symObjAddr: 0x1067C, symBinAddr: 0x10001305C, symSize: 0x18 }
  - { offsetInCU: 0x1D302, offset: 0x1D302, size: 0x8, addend: 0x0, symName: __ZNKSt3__117__compressed_pairIPNS_12basic_stringIcNS_11char_traitsIcEENS_9allocatorIcEEEENS4_IS6_EEE6secondB7v160006Ev, symObjAddr: 0x10694, symBinAddr: 0x100013074, symSize: 0x24 }
  - { offsetInCU: 0x1D328, offset: 0x1D328, size: 0x8, addend: 0x0, symName: __ZNKSt3__122__compressed_pair_elemINS_9allocatorINS_12basic_stringIcNS_11char_traitsIcEENS1_IcEEEEEELi1ELb1EE5__getB7v160006Ev, symObjAddr: 0x106B8, symBinAddr: 0x100013098, symSize: 0x14 }
  - { offsetInCU: 0x1D34E, offset: 0x1D34E, size: 0x8, addend: 0x0, symName: __ZNSt12length_errorC1B7v160006EPKc, symObjAddr: 0x10730, symBinAddr: 0x100013110, symSize: 0x34 }
  - { offsetInCU: 0x1D386, offset: 0x1D386, size: 0x8, addend: 0x0, symName: __ZNSt12length_errorC2B7v160006EPKc, symObjAddr: 0x10764, symBinAddr: 0x100013144, symSize: 0x4C }
  - { offsetInCU: 0x1D3BE, offset: 0x1D3BE, size: 0x8, addend: 0x0, symName: __ZNSt3__114__split_bufferINS_12basic_stringIcNS_11char_traitsIcEENS_9allocatorIcEEEERNS4_IS6_EEEC2EmmS8_, symObjAddr: 0x107B0, symBinAddr: 0x100013190, symSize: 0xE0 }
  - { offsetInCU: 0x1D431, offset: 0x1D431, size: 0x8, addend: 0x0, symName: __ZNSt3__117__compressed_pairIPNS_12basic_stringIcNS_11char_traitsIcEENS_9allocatorIcEEEERNS4_IS6_EEEC1B7v160006IDnS9_EEOT_OT0_, symObjAddr: 0x10890, symBinAddr: 0x100013270, symSize: 0x3C }
  - { offsetInCU: 0x1D489, offset: 0x1D489, size: 0x8, addend: 0x0, symName: __ZNSt3__114__split_bufferINS_12basic_stringIcNS_11char_traitsIcEENS_9allocatorIcEEEERNS4_IS6_EEE7__allocB7v160006Ev, symObjAddr: 0x1090C, symBinAddr: 0x1000132EC, symSize: 0x28 }
  - { offsetInCU: 0x1D4AF, offset: 0x1D4AF, size: 0x8, addend: 0x0, symName: __ZNSt3__114__split_bufferINS_12basic_stringIcNS_11char_traitsIcEENS_9allocatorIcEEEERNS4_IS6_EEE9__end_capB7v160006Ev, symObjAddr: 0x10934, symBinAddr: 0x100013314, symSize: 0x28 }
  - { offsetInCU: 0x1D4D5, offset: 0x1D4D5, size: 0x8, addend: 0x0, symName: __ZNSt3__117__compressed_pairIPNS_12basic_stringIcNS_11char_traitsIcEENS_9allocatorIcEEEERNS4_IS6_EEEC2B7v160006IDnS9_EEOT_OT0_, symObjAddr: 0x1095C, symBinAddr: 0x10001333C, symSize: 0x48 }
  - { offsetInCU: 0x1D52D, offset: 0x1D52D, size: 0x8, addend: 0x0, symName: __ZNSt3__122__compressed_pair_elemIRNS_9allocatorINS_12basic_stringIcNS_11char_traitsIcEENS1_IcEEEEEELi1ELb0EEC2B7v160006IS8_vEEOT_, symObjAddr: 0x109A4, symBinAddr: 0x100013384, symSize: 0x20 }
  - { offsetInCU: 0x1D56F, offset: 0x1D56F, size: 0x8, addend: 0x0, symName: __ZNSt3__19allocatorINS_12basic_stringIcNS_11char_traitsIcEENS0_IcEEEEE8allocateB7v160006Em, symObjAddr: 0x109C4, symBinAddr: 0x1000133A4, symSize: 0x5C }
  - { offsetInCU: 0x1D5A3, offset: 0x1D5A3, size: 0x8, addend: 0x0, symName: __ZNSt3__117__compressed_pairIPNS_12basic_stringIcNS_11char_traitsIcEENS_9allocatorIcEEEERNS4_IS6_EEE6secondB7v160006Ev, symObjAddr: 0x10A20, symBinAddr: 0x100013400, symSize: 0x28 }
  - { offsetInCU: 0x1D5C9, offset: 0x1D5C9, size: 0x8, addend: 0x0, symName: __ZNSt3__122__compressed_pair_elemIRNS_9allocatorINS_12basic_stringIcNS_11char_traitsIcEENS1_IcEEEEEELi1ELb0EE5__getB7v160006Ev, symObjAddr: 0x10A48, symBinAddr: 0x100013428, symSize: 0x18 }
  - { offsetInCU: 0x1D5EF, offset: 0x1D5EF, size: 0x8, addend: 0x0, symName: __ZNSt3__117__compressed_pairIPNS_12basic_stringIcNS_11char_traitsIcEENS_9allocatorIcEEEERNS4_IS6_EEE5firstB7v160006Ev, symObjAddr: 0x10A60, symBinAddr: 0x100013440, symSize: 0x24 }
  - { offsetInCU: 0x1D615, offset: 0x1D615, size: 0x8, addend: 0x0, symName: __ZNSt3__116reverse_iteratorIPNS_12basic_stringIcNS_11char_traitsIcEENS_9allocatorIcEEEEEC1B7v160006ES7_, symObjAddr: 0x10BB0, symBinAddr: 0x100013590, symSize: 0x34 }
  - { offsetInCU: 0x1D64D, offset: 0x1D64D, size: 0x8, addend: 0x0, symName: __ZNKSt3__116reverse_iteratorIPNS_12basic_stringIcNS_11char_traitsIcEENS_9allocatorIcEEEEE4baseB7v160006Ev, symObjAddr: 0x10BE4, symBinAddr: 0x1000135C4, symSize: 0x18 }
  - { offsetInCU: 0x1D673, offset: 0x1D673, size: 0x8, addend: 0x0, symName: __ZNKSt3__16vectorINS_12basic_stringIcNS_11char_traitsIcEENS_9allocatorIcEEEENS4_IS6_EEE14__annotate_newB7v160006Em, symObjAddr: 0x10C38, symBinAddr: 0x100013618, symSize: 0xC8 }
  - { offsetInCU: 0x1D6A8, offset: 0x1D6A8, size: 0x8, addend: 0x0, symName: __ZNSt3__129_AllocatorDestroyRangeReverseINS_9allocatorINS_12basic_stringIcNS_11char_traitsIcEENS1_IcEEEEEENS_16reverse_iteratorIPS6_EEEC1B7v160006ERS7_RSA_SD_, symObjAddr: 0x10D5C, symBinAddr: 0x10001373C, symSize: 0x44 }
  - { offsetInCU: 0x1D705, offset: 0x1D705, size: 0x8, addend: 0x0, symName: __ZNSt3__116allocator_traitsINS_9allocatorINS_12basic_stringIcNS_11char_traitsIcEENS1_IcEEEEEEE9constructB7v160006IS6_JS6_EvEEvRS7_PT_DpOT0_, symObjAddr: 0x10DE8, symBinAddr: 0x1000137C8, symSize: 0x34 }
  - { offsetInCU: 0x1D75C, offset: 0x1D75C, size: 0x8, addend: 0x0, symName: __ZNKSt3__116reverse_iteratorIPNS_12basic_stringIcNS_11char_traitsIcEENS_9allocatorIcEEEEEdeB7v160006Ev, symObjAddr: 0x10E40, symBinAddr: 0x100013820, symSize: 0x28 }
  - { offsetInCU: 0x1D790, offset: 0x1D790, size: 0x8, addend: 0x0, symName: __ZNSt3__116reverse_iteratorIPNS_12basic_stringIcNS_11char_traitsIcEENS_9allocatorIcEEEEEppB7v160006Ev, symObjAddr: 0x10E68, symBinAddr: 0x100013848, symSize: 0x20 }
  - { offsetInCU: 0x1D7B6, offset: 0x1D7B6, size: 0x8, addend: 0x0, symName: __ZNSt3__128__exception_guard_exceptionsINS_29_AllocatorDestroyRangeReverseINS_9allocatorINS_12basic_stringIcNS_11char_traitsIcEENS2_IcEEEEEENS_16reverse_iteratorIPS7_EEEEE10__completeB7v160006Ev, symObjAddr: 0x10E88, symBinAddr: 0x100013868, symSize: 0x1C }
  - { offsetInCU: 0x1D7DC, offset: 0x1D7DC, size: 0x8, addend: 0x0, symName: __ZNSt3__128__exception_guard_exceptionsINS_29_AllocatorDestroyRangeReverseINS_9allocatorINS_12basic_stringIcNS_11char_traitsIcEENS2_IcEEEEEENS_16reverse_iteratorIPS7_EEEEED1B7v160006Ev, symObjAddr: 0x10EA4, symBinAddr: 0x100013884, symSize: 0x2C }
  - { offsetInCU: 0x1D806, offset: 0x1D806, size: 0x8, addend: 0x0, symName: __ZNSt3__128__exception_guard_exceptionsINS_29_AllocatorDestroyRangeReverseINS_9allocatorINS_12basic_stringIcNS_11char_traitsIcEENS2_IcEEEEEENS_16reverse_iteratorIPS7_EEEEEC1B7v160006ESC_, symObjAddr: 0x10ED0, symBinAddr: 0x1000138B0, symSize: 0x34 }
  - { offsetInCU: 0x1D83F, offset: 0x1D83F, size: 0x8, addend: 0x0, symName: __ZNSt3__128__exception_guard_exceptionsINS_29_AllocatorDestroyRangeReverseINS_9allocatorINS_12basic_stringIcNS_11char_traitsIcEENS2_IcEEEEEENS_16reverse_iteratorIPS7_EEEEEC2B7v160006ESC_, symObjAddr: 0x10F04, symBinAddr: 0x1000138E4, symSize: 0x30 }
  - { offsetInCU: 0x1D878, offset: 0x1D878, size: 0x8, addend: 0x0, symName: __ZNSt3__129_AllocatorDestroyRangeReverseINS_9allocatorINS_12basic_stringIcNS_11char_traitsIcEENS1_IcEEEEEENS_16reverse_iteratorIPS6_EEEC2B7v160006ERS7_RSA_SD_, symObjAddr: 0x10F34, symBinAddr: 0x100013914, symSize: 0x38 }
  - { offsetInCU: 0x1D8CF, offset: 0x1D8CF, size: 0x8, addend: 0x0, symName: __ZNSt3__19allocatorINS_12basic_stringIcNS_11char_traitsIcEENS0_IcEEEEE9constructB7v160006IS5_JS5_EEEvPT_DpOT0_, symObjAddr: 0x10F6C, symBinAddr: 0x10001394C, symSize: 0x30 }
  - { offsetInCU: 0x1D92A, offset: 0x1D92A, size: 0x8, addend: 0x0, symName: __ZNSt3__119__to_address_helperINS_16reverse_iteratorIPNS_12basic_stringIcNS_11char_traitsIcEENS_9allocatorIcEEEEEEvE6__callB7v160006ERKS9_, symObjAddr: 0x10F9C, symBinAddr: 0x10001397C, symSize: 0x38 }
  - { offsetInCU: 0x1D94D, offset: 0x1D94D, size: 0x8, addend: 0x0, symName: __ZNKSt3__116reverse_iteratorIPNS_12basic_stringIcNS_11char_traitsIcEENS_9allocatorIcEEEEEptB7v160006Ev, symObjAddr: 0x10FD4, symBinAddr: 0x1000139B4, symSize: 0x24 }
  - { offsetInCU: 0x1D973, offset: 0x1D973, size: 0x8, addend: 0x0, symName: __ZNSt3__128__exception_guard_exceptionsINS_29_AllocatorDestroyRangeReverseINS_9allocatorINS_12basic_stringIcNS_11char_traitsIcEENS2_IcEEEEEENS_16reverse_iteratorIPS7_EEEEED2B7v160006Ev, symObjAddr: 0x10FF8, symBinAddr: 0x1000139D8, symSize: 0x50 }
  - { offsetInCU: 0x1D99D, offset: 0x1D99D, size: 0x8, addend: 0x0, symName: __ZNKSt3__129_AllocatorDestroyRangeReverseINS_9allocatorINS_12basic_stringIcNS_11char_traitsIcEENS1_IcEEEEEENS_16reverse_iteratorIPS6_EEEclB7v160006Ev, symObjAddr: 0x11048, symBinAddr: 0x100013A28, symSize: 0xB4 }
  - { offsetInCU: 0x1D9C4, offset: 0x1D9C4, size: 0x8, addend: 0x0, symName: __ZNSt3__116reverse_iteratorINS0_IPNS_12basic_stringIcNS_11char_traitsIcEENS_9allocatorIcEEEEEEEC1B7v160006ES8_, symObjAddr: 0x1116C, symBinAddr: 0x100013B4C, symSize: 0x3C }
  - { offsetInCU: 0x1D9FC, offset: 0x1D9FC, size: 0x8, addend: 0x0, symName: __ZNSt3__116reverse_iteratorINS0_IPNS_12basic_stringIcNS_11char_traitsIcEENS_9allocatorIcEEEEEEEppB7v160006Ev, symObjAddr: 0x1122C, symBinAddr: 0x100013C0C, symSize: 0x30 }
  - { offsetInCU: 0x1DA22, offset: 0x1DA22, size: 0x8, addend: 0x0, symName: __ZNKSt3__116reverse_iteratorINS0_IPNS_12basic_stringIcNS_11char_traitsIcEENS_9allocatorIcEEEEEEE4baseB7v160006Ev, symObjAddr: 0x1125C, symBinAddr: 0x100013C3C, symSize: 0x24 }
  - { offsetInCU: 0x1DA4D, offset: 0x1DA4D, size: 0x8, addend: 0x0, symName: __ZNSt3__119__to_address_helperINS_16reverse_iteratorINS1_IPNS_12basic_stringIcNS_11char_traitsIcEENS_9allocatorIcEEEEEEEEvE6__callB7v160006ERKSA_, symObjAddr: 0x11280, symBinAddr: 0x100013C60, symSize: 0x38 }
  - { offsetInCU: 0x1DA70, offset: 0x1DA70, size: 0x8, addend: 0x0, symName: __ZNKSt3__116reverse_iteratorINS0_IPNS_12basic_stringIcNS_11char_traitsIcEENS_9allocatorIcEEEEEEEptB7v160006Ev, symObjAddr: 0x112B8, symBinAddr: 0x100013C98, symSize: 0x24 }
  - { offsetInCU: 0x1DA96, offset: 0x1DA96, size: 0x8, addend: 0x0, symName: __ZNKSt3__116reverse_iteratorINS0_IPNS_12basic_stringIcNS_11char_traitsIcEENS_9allocatorIcEEEEEEEdeB7v160006Ev, symObjAddr: 0x112DC, symBinAddr: 0x100013CBC, symSize: 0x34 }
  - { offsetInCU: 0x1DACA, offset: 0x1DACA, size: 0x8, addend: 0x0, symName: __ZNSt3__116reverse_iteratorIPNS_12basic_stringIcNS_11char_traitsIcEENS_9allocatorIcEEEEEmmB7v160006Ev, symObjAddr: 0x11310, symBinAddr: 0x100013CF0, symSize: 0x20 }
  - { offsetInCU: 0x1DAF0, offset: 0x1DAF0, size: 0x8, addend: 0x0, symName: __ZNSt3__116reverse_iteratorINS0_IPNS_12basic_stringIcNS_11char_traitsIcEENS_9allocatorIcEEEEEEEC2B7v160006ES8_, symObjAddr: 0x11330, symBinAddr: 0x100013D10, symSize: 0x2C }
  - { offsetInCU: 0x1DB28, offset: 0x1DB28, size: 0x8, addend: 0x0, symName: __ZNSt3__116reverse_iteratorIPNS_12basic_stringIcNS_11char_traitsIcEENS_9allocatorIcEEEEEC2B7v160006ES7_, symObjAddr: 0x1135C, symBinAddr: 0x100013D3C, symSize: 0x28 }
  - { offsetInCU: 0x1DB60, offset: 0x1DB60, size: 0x8, addend: 0x0, symName: __ZNSt3__114__split_bufferINS_12basic_stringIcNS_11char_traitsIcEENS_9allocatorIcEEEERNS4_IS6_EEED2Ev, symObjAddr: 0x11384, symBinAddr: 0x100013D64, symSize: 0x8C }
  - { offsetInCU: 0x1DB8C, offset: 0x1DB8C, size: 0x8, addend: 0x0, symName: __ZNSt3__114__split_bufferINS_12basic_stringIcNS_11char_traitsIcEENS_9allocatorIcEEEERNS4_IS6_EEE5clearB7v160006Ev, symObjAddr: 0x11410, symBinAddr: 0x100013DF0, symSize: 0x28 }
  - { offsetInCU: 0x1DBB2, offset: 0x1DBB2, size: 0x8, addend: 0x0, symName: __ZNKSt3__114__split_bufferINS_12basic_stringIcNS_11char_traitsIcEENS_9allocatorIcEEEERNS4_IS6_EEE8capacityB7v160006Ev, symObjAddr: 0x11438, symBinAddr: 0x100013E18, symSize: 0x40 }
  - { offsetInCU: 0x1DBD8, offset: 0x1DBD8, size: 0x8, addend: 0x0, symName: __ZNSt3__114__split_bufferINS_12basic_stringIcNS_11char_traitsIcEENS_9allocatorIcEEEERNS4_IS6_EEE17__destruct_at_endB7v160006EPS6_, symObjAddr: 0x11478, symBinAddr: 0x100013E58, symSize: 0x2C }
  - { offsetInCU: 0x1DC0C, offset: 0x1DC0C, size: 0x8, addend: 0x0, symName: __ZNSt3__114__split_bufferINS_12basic_stringIcNS_11char_traitsIcEENS_9allocatorIcEEEERNS4_IS6_EEE17__destruct_at_endB7v160006EPS6_NS_17integral_constantIbLb0EEE, symObjAddr: 0x114A4, symBinAddr: 0x100013E84, symSize: 0x80 }
  - { offsetInCU: 0x1DC4C, offset: 0x1DC4C, size: 0x8, addend: 0x0, symName: __ZNKSt3__114__split_bufferINS_12basic_stringIcNS_11char_traitsIcEENS_9allocatorIcEEEERNS4_IS6_EEE9__end_capB7v160006Ev, symObjAddr: 0x11524, symBinAddr: 0x100013F04, symSize: 0x28 }
  - { offsetInCU: 0x1DC72, offset: 0x1DC72, size: 0x8, addend: 0x0, symName: __ZNKSt3__117__compressed_pairIPNS_12basic_stringIcNS_11char_traitsIcEENS_9allocatorIcEEEERNS4_IS6_EEE5firstB7v160006Ev, symObjAddr: 0x1154C, symBinAddr: 0x100013F2C, symSize: 0x24 }
  - { offsetInCU: 0x1DC98, offset: 0x1DC98, size: 0x8, addend: 0x0, symName: __ZNSt3__15dequeINS0_I5TokenNS_9allocatorIS1_EEEENS2_IS4_EEE26__maybe_remove_front_spareB7v160006Eb, symObjAddr: 0x11584, symBinAddr: 0x100013F64, symSize: 0xDC }
  - { offsetInCU: 0x1DCCD, offset: 0x1DCCD, size: 0x8, addend: 0x0, symName: __ZNKSt3__15dequeINS0_I5TokenNS_9allocatorIS1_EEEENS2_IS4_EEE20__front_spare_blocksB7v160006Ev, symObjAddr: 0x11660, symBinAddr: 0x100014040, symSize: 0x2C }
  - { offsetInCU: 0x1DCF3, offset: 0x1DCF3, size: 0x8, addend: 0x0, symName: __ZNKSt3__114__split_bufferIP5TokenNS_9allocatorIS2_EEE5beginB7v160006Ev, symObjAddr: 0x1168C, symBinAddr: 0x10001406C, symSize: 0x18 }
  - { offsetInCU: 0x1DD19, offset: 0x1DD19, size: 0x8, addend: 0x0, symName: __ZNKSt3__15dequeI5TokenNS_9allocatorIS1_EEE6__sizeB7v160006Ev, symObjAddr: 0x116A4, symBinAddr: 0x100014084, symSize: 0x28 }
  - { offsetInCU: 0x1DD3F, offset: 0x1DD3F, size: 0x8, addend: 0x0, symName: __ZNKSt3__117__compressed_pairImNS_9allocatorI5TokenEEE5firstB7v160006Ev, symObjAddr: 0x116CC, symBinAddr: 0x1000140AC, symSize: 0x24 }
  - { offsetInCU: 0x1DD65, offset: 0x1DD65, size: 0x8, addend: 0x0, symName: __ZNKSt3__112basic_stringIcNS_11char_traitsIcEENS_9allocatorIcEEE21__make_const_iteratorB7v160006EPKc, symObjAddr: 0x116F0, symBinAddr: 0x1000140D0, symSize: 0x34 }
  - { offsetInCU: 0x1DD9A, offset: 0x1DD9A, size: 0x8, addend: 0x0, symName: __ZNSt3__111__wrap_iterIPKcEC1B7v160006EPKvS2_, symObjAddr: 0x11724, symBinAddr: 0x100014104, symSize: 0x3C }
  - { offsetInCU: 0x1DDE0, offset: 0x1DDE0, size: 0x8, addend: 0x0, symName: __ZNSt3__111__wrap_iterIPKcEC2B7v160006EPKvS2_, symObjAddr: 0x11760, symBinAddr: 0x100014140, symSize: 0x24 }
  - { offsetInCU: 0x1DE26, offset: 0x1DE26, size: 0x8, addend: 0x0, symName: __ZNKSt3__114__split_bufferIPNS_5dequeI5TokenNS_9allocatorIS2_EEEENS3_IS6_EEE5beginB7v160006Ev, symObjAddr: 0x11784, symBinAddr: 0x100014164, symSize: 0x18 }
  - { offsetInCU: 0x1DE4C, offset: 0x1DE4C, size: 0x8, addend: 0x0, symName: __ZNSt3__116__deque_iteratorINS_5dequeI5TokenNS_9allocatorIS2_EEEEPKS5_RS6_PKS7_lLl85EEC1B7v160006ESA_S7_, symObjAddr: 0x1179C, symBinAddr: 0x10001417C, symSize: 0x3C }
  - { offsetInCU: 0x1DE94, offset: 0x1DE94, size: 0x8, addend: 0x0, symName: __ZNSt3__116__deque_iteratorINS_5dequeI5TokenNS_9allocatorIS2_EEEEPKS5_RS6_PKS7_lLl85EEC2B7v160006ESA_S7_, symObjAddr: 0x117D8, symBinAddr: 0x1000141B8, symSize: 0x2C }
  - { offsetInCU: 0x1DEDC, offset: 0x1DEDC, size: 0x8, addend: 0x0, symName: __ZNSt3__116__deque_iteratorI5TokenPKS1_RS2_PKS3_lLl85EEC1B7v160006ES6_S3_, symObjAddr: 0x11834, symBinAddr: 0x100014214, symSize: 0x3C }
  - { offsetInCU: 0x1DF24, offset: 0x1DF24, size: 0x8, addend: 0x0, symName: __ZNSt3__116__deque_iteratorI5TokenPKS1_RS2_PKS3_lLl85EEC2B7v160006ES6_S3_, symObjAddr: 0x11870, symBinAddr: 0x100014250, symSize: 0x2C }
  - { offsetInCU: 0x1DF8A, offset: 0x1DF8A, size: 0x8, addend: 0x0, symName: __ZNKSt3__113basic_ostreamIcNS_11char_traitsIcEEE6sentrycvbB7v160006Ev, symObjAddr: 0x11AB8, symBinAddr: 0x100014498, symSize: 0x1C }
  - { offsetInCU: 0x1DFB0, offset: 0x1DFB0, size: 0x8, addend: 0x0, symName: __ZNSt3__119ostreambuf_iteratorIcNS_11char_traitsIcEEEC1B7v160006ERNS_13basic_ostreamIcS2_EE, symObjAddr: 0x11D14, symBinAddr: 0x1000146F4, symSize: 0x34 }
  - { offsetInCU: 0x1DFE8, offset: 0x1DFE8, size: 0x8, addend: 0x0, symName: __ZNKSt3__18ios_base5flagsB7v160006Ev, symObjAddr: 0x11D48, symBinAddr: 0x100014728, symSize: 0x18 }
  - { offsetInCU: 0x1E010, offset: 0x1E010, size: 0x8, addend: 0x0, symName: __ZNKSt3__19basic_iosIcNS_11char_traitsIcEEE4fillB7v160006Ev, symObjAddr: 0x11D60, symBinAddr: 0x100014740, symSize: 0x64 }
  - { offsetInCU: 0x1E038, offset: 0x1E038, size: 0x8, addend: 0x0, symName: __ZNKSt3__119ostreambuf_iteratorIcNS_11char_traitsIcEEE6failedB7v160006Ev, symObjAddr: 0x11DC4, symBinAddr: 0x1000147A4, symSize: 0x24 }
  - { offsetInCU: 0x1E05E, offset: 0x1E05E, size: 0x8, addend: 0x0, symName: __ZNSt3__115basic_streambufIcNS_11char_traitsIcEEE5sputnB7v160006EPKcl, symObjAddr: 0x11DE8, symBinAddr: 0x1000147C8, symSize: 0x3C }
  - { offsetInCU: 0x1E0A0, offset: 0x1E0A0, size: 0x8, addend: 0x0, symName: __ZNSt3__112basic_stringIcNS_11char_traitsIcEENS_9allocatorIcEEEC1B7v160006Emc, symObjAddr: 0x11E24, symBinAddr: 0x100014804, symSize: 0x3C }
  - { offsetInCU: 0x1E0E8, offset: 0x1E0E8, size: 0x8, addend: 0x0, symName: __ZNSt3__112basic_stringIcNS_11char_traitsIcEENS_9allocatorIcEEEC2B7v160006Emc, symObjAddr: 0x11E60, symBinAddr: 0x100014840, symSize: 0x54 }
  - { offsetInCU: 0x1E130, offset: 0x1E130, size: 0x8, addend: 0x0, symName: __ZNSt3__119ostreambuf_iteratorIcNS_11char_traitsIcEEEC2B7v160006ERNS_13basic_ostreamIcS2_EE, symObjAddr: 0x11EB4, symBinAddr: 0x100014894, symSize: 0x54 }
  - { offsetInCU: 0x1E168, offset: 0x1E168, size: 0x8, addend: 0x0, symName: __ZNKSt3__19basic_iosIcNS_11char_traitsIcEEE5widenB7v160006Ec, symObjAddr: 0x11F08, symBinAddr: 0x1000148E8, symSize: 0x84 }
  - { offsetInCU: 0x1E19F, offset: 0x1E19F, size: 0x8, addend: 0x0, symName: __ZNKSt3__15ctypeIcE5widenB7v160006Ec, symObjAddr: 0x11F8C, symBinAddr: 0x10001496C, symSize: 0x38 }
  - { offsetInCU: 0x1E1D4, offset: 0x1E1D4, size: 0x8, addend: 0x0, symName: __ZNSt3__113basic_filebufIcNS_11char_traitsIcEEE4openERKNS_12basic_stringIcS2_NS_9allocatorIcEEEEj, symObjAddr: 0x11FC4, symBinAddr: 0x1000149A4, symSize: 0x44 }
  - { offsetInCU: 0x1E218, offset: 0x1E218, size: 0x8, addend: 0x0, symName: __ZNKSt3__112basic_stringIcNS_11char_traitsIcEENS_9allocatorIcEEE5c_strB7v160006Ev, symObjAddr: 0x12008, symBinAddr: 0x1000149E8, symSize: 0x24 }
  - { offsetInCU: 0x1E23E, offset: 0x1E23E, size: 0x8, addend: 0x0, symName: __ZNKSt3__113basic_filebufIcNS_11char_traitsIcEEE7is_openEv, symObjAddr: 0x1202C, symBinAddr: 0x100014A0C, symSize: 0x24 }
  - { offsetInCU: 0x1E266, offset: 0x1E266, size: 0x8, addend: 0x0, symName: __ZNSt3__114basic_iostreamIcNS_11char_traitsIcEEEC2B7v160006EPNS_15basic_streambufIcS2_EE, symObjAddr: 0x12050, symBinAddr: 0x100014A30, symSize: 0xAC }
  - { offsetInCU: 0x1E2AC, offset: 0x1E2AC, size: 0x8, addend: 0x0, symName: __ZNSt3__115basic_stringbufIcNS_11char_traitsIcEENS_9allocatorIcEEEC1B7v160006Ej, symObjAddr: 0x120FC, symBinAddr: 0x100014ADC, symSize: 0x34 }
  - { offsetInCU: 0x1E2E4, offset: 0x1E2E4, size: 0x8, addend: 0x0, symName: __ZNSt3__113basic_ostreamIcNS_11char_traitsIcEEEC2B7v160006Ev, symObjAddr: 0x12130, symBinAddr: 0x100014B10, symSize: 0x34 }
  - { offsetInCU: 0x1E31B, offset: 0x1E31B, size: 0x8, addend: 0x0, symName: __ZNSt3__115basic_stringbufIcNS_11char_traitsIcEENS_9allocatorIcEEEC2B7v160006Ej, symObjAddr: 0x12164, symBinAddr: 0x100014B44, symSize: 0x60 }
  - { offsetInCU: 0x1E353, offset: 0x1E353, size: 0x8, addend: 0x0, symName: __ZNKSt3__111__wrap_iterIPcEplB7v160006El, symObjAddr: 0x122C4, symBinAddr: 0x100014CA4, symSize: 0x3C }
  - { offsetInCU: 0x1E395, offset: 0x1E395, size: 0x8, addend: 0x0, symName: __ZNSt3__111__wrap_iterIPcEpLB7v160006El, symObjAddr: 0x12300, symBinAddr: 0x100014CE0, symSize: 0x28 }
  - { offsetInCU: 0x1E3C9, offset: 0x1E3C9, size: 0x8, addend: 0x0, symName: __ZNSt3__15dequeINS0_I5TokenNS_9allocatorIS1_EEEENS2_IS4_EEEC2ERKS6_, symObjAddr: 0x12328, symBinAddr: 0x100014D08, symSize: 0xEC }
  - { offsetInCU: 0x1E404, offset: 0x1E404, size: 0x8, addend: 0x0, symName: __ZNSt3__116allocator_traitsINS_9allocatorINS_5dequeI5TokenNS1_IS3_EEEEEEE37select_on_container_copy_constructionB7v160006IS6_vvEES6_RKS6_, symObjAddr: 0x12414, symBinAddr: 0x100014DF4, symSize: 0x10 }
  - { offsetInCU: 0x1E433, offset: 0x1E433, size: 0x8, addend: 0x0, symName: __ZNKSt3__15dequeINS0_I5TokenNS_9allocatorIS1_EEEENS2_IS4_EEE7__allocB7v160006Ev, symObjAddr: 0x12424, symBinAddr: 0x100014E04, symSize: 0x28 }
  - { offsetInCU: 0x1E459, offset: 0x1E459, size: 0x8, addend: 0x0, symName: __ZNSt3__19allocatorIPNS_5dequeI5TokenNS0_IS2_EEEEEC1B7v160006IS4_EERKNS0_IT_EE, symObjAddr: 0x1244C, symBinAddr: 0x100014E2C, symSize: 0x34 }
  - { offsetInCU: 0x1E496, offset: 0x1E496, size: 0x8, addend: 0x0, symName: __ZNSt3__114__split_bufferIPNS_5dequeI5TokenNS_9allocatorIS2_EEEENS3_IS6_EEEC1ERKS7_, symObjAddr: 0x12480, symBinAddr: 0x100014E60, symSize: 0x34 }
  - { offsetInCU: 0x1E4D0, offset: 0x1E4D0, size: 0x8, addend: 0x0, symName: __ZNSt3__117__compressed_pairImNS_9allocatorINS_5dequeI5TokenNS1_IS3_EEEEEEEC1B7v160006IiRNS1_IPS5_EEEEOT_OT0_, symObjAddr: 0x124B4, symBinAddr: 0x100014E94, symSize: 0x3C }
  - { offsetInCU: 0x1E528, offset: 0x1E528, size: 0x8, addend: 0x0, symName: __ZNSt3__15dequeINS0_I5TokenNS_9allocatorIS1_EEEENS2_IS4_EEE8__appendINS_16__deque_iteratorIS4_PKS4_RS9_PKSA_lLl85EEEEEvT_SF_PNS_9enable_ifIXsr27__is_cpp17_forward_iteratorISF_EE5valueEvE4typeE, symObjAddr: 0x124F0, symBinAddr: 0x100014ED0, symSize: 0x23C }
  - { offsetInCU: 0x1E616, offset: 0x1E616, size: 0x8, addend: 0x0, symName: __ZNKSt3__117__compressed_pairImNS_9allocatorINS_5dequeI5TokenNS1_IS3_EEEEEEE6secondB7v160006Ev, symObjAddr: 0x1272C, symBinAddr: 0x10001510C, symSize: 0x24 }
  - { offsetInCU: 0x1E63C, offset: 0x1E63C, size: 0x8, addend: 0x0, symName: __ZNKSt3__122__compressed_pair_elemINS_9allocatorINS_5dequeI5TokenNS1_IS3_EEEEEELi1ELb1EE5__getB7v160006Ev, symObjAddr: 0x12750, symBinAddr: 0x100015130, symSize: 0x14 }
  - { offsetInCU: 0x1E662, offset: 0x1E662, size: 0x8, addend: 0x0, symName: __ZNSt3__19allocatorIPNS_5dequeI5TokenNS0_IS2_EEEEEC2B7v160006IS4_EERKNS0_IT_EE, symObjAddr: 0x12764, symBinAddr: 0x100015144, symSize: 0x30 }
  - { offsetInCU: 0x1E69F, offset: 0x1E69F, size: 0x8, addend: 0x0, symName: __ZNSt3__114__split_bufferIPNS_5dequeI5TokenNS_9allocatorIS2_EEEENS3_IS6_EEEC2ERKS7_, symObjAddr: 0x12794, symBinAddr: 0x100015174, symSize: 0x4C }
  - { offsetInCU: 0x1E6D9, offset: 0x1E6D9, size: 0x8, addend: 0x0, symName: __ZNSt3__117__compressed_pairIPPNS_5dequeI5TokenNS_9allocatorIS2_EEEENS3_IS6_EEEC1B7v160006IDnRKS8_EEOT_OT0_, symObjAddr: 0x127E0, symBinAddr: 0x1000151C0, symSize: 0x3C }
  - { offsetInCU: 0x1E731, offset: 0x1E731, size: 0x8, addend: 0x0, symName: __ZNSt3__117__compressed_pairIPPNS_5dequeI5TokenNS_9allocatorIS2_EEEENS3_IS6_EEEC2B7v160006IDnRKS8_EEOT_OT0_, symObjAddr: 0x1281C, symBinAddr: 0x1000151FC, symSize: 0x44 }
  - { offsetInCU: 0x1E789, offset: 0x1E789, size: 0x8, addend: 0x0, symName: __ZNSt3__122__compressed_pair_elemINS_9allocatorIPNS_5dequeI5TokenNS1_IS3_EEEEEELi1ELb1EEC2B7v160006IRKS7_vEEOT_, symObjAddr: 0x12860, symBinAddr: 0x100015240, symSize: 0x18 }
  - { offsetInCU: 0x1E7CB, offset: 0x1E7CB, size: 0x8, addend: 0x0, symName: __ZNSt3__117__compressed_pairImNS_9allocatorINS_5dequeI5TokenNS1_IS3_EEEEEEEC2B7v160006IiRNS1_IPS5_EEEEOT_OT0_, symObjAddr: 0x12878, symBinAddr: 0x100015258, symSize: 0x44 }
  - { offsetInCU: 0x1E823, offset: 0x1E823, size: 0x8, addend: 0x0, symName: __ZNSt3__122__compressed_pair_elemINS_9allocatorINS_5dequeI5TokenNS1_IS3_EEEEEELi1ELb1EEC2B7v160006IRNS1_IPS5_EEvEEOT_, symObjAddr: 0x128BC, symBinAddr: 0x10001529C, symSize: 0x34 }
  - { offsetInCU: 0x1E865, offset: 0x1E865, size: 0x8, addend: 0x0, symName: __ZNSt3__19allocatorINS_5dequeI5TokenNS0_IS2_EEEEEC2B7v160006IPS4_EERKNS0_IT_EE, symObjAddr: 0x128F0, symBinAddr: 0x1000152D0, symSize: 0x30 }
  - { offsetInCU: 0x1E8A2, offset: 0x1E8A2, size: 0x8, addend: 0x0, symName: __ZNSt3__15dequeINS0_I5TokenNS_9allocatorIS1_EEEENS2_IS4_EEE19__add_back_capacityEm, symObjAddr: 0x1296C, symBinAddr: 0x10001534C, symSize: 0x5BC }
  - { offsetInCU: 0x1E9A3, offset: 0x1E9A3, size: 0x8, addend: 0x0, symName: __ZNKSt3__116__deque_iteratorINS_5dequeI5TokenNS_9allocatorIS2_EEEEPS5_RS5_PS6_lLl85EEplB7v160006El, symObjAddr: 0x12F28, symBinAddr: 0x100015908, symSize: 0x40 }
  - { offsetInCU: 0x1EA0A, offset: 0x1EA0A, size: 0x8, addend: 0x0, symName: __ZNSt3__15dequeINS0_I5TokenNS_9allocatorIS1_EEEENS2_IS4_EEE13__deque_rangeC1B7v160006ENS_16__deque_iteratorIS4_PS4_RS4_PS9_lLl85EEESC_, symObjAddr: 0x12F68, symBinAddr: 0x100015948, symSize: 0x4C }
  - { offsetInCU: 0x1EA52, offset: 0x1EA52, size: 0x8, addend: 0x0, symName: __ZNKSt3__15dequeINS0_I5TokenNS_9allocatorIS1_EEEENS2_IS4_EEE13__deque_range5beginB7v160006Ev, symObjAddr: 0x12FB4, symBinAddr: 0x100015994, symSize: 0x24 }
  - { offsetInCU: 0x1EA78, offset: 0x1EA78, size: 0x8, addend: 0x0, symName: __ZNKSt3__15dequeINS0_I5TokenNS_9allocatorIS1_EEEENS2_IS4_EEE13__deque_range3endB7v160006Ev, symObjAddr: 0x12FD8, symBinAddr: 0x1000159B8, symSize: 0x50 }
  - { offsetInCU: 0x1EA9E, offset: 0x1EA9E, size: 0x8, addend: 0x0, symName: __ZNKSt3__15dequeINS0_I5TokenNS_9allocatorIS1_EEEENS2_IS4_EEE13__deque_rangedeB7v160006Ev, symObjAddr: 0x1305C, symBinAddr: 0x100015A3C, symSize: 0x7C }
  - { offsetInCU: 0x1EAD8, offset: 0x1EAD8, size: 0x8, addend: 0x0, symName: __ZNSt3__15dequeINS0_I5TokenNS_9allocatorIS1_EEEENS2_IS4_EEE21_ConstructTransactionC1B7v160006EPS6_RNS6_19__deque_block_rangeE, symObjAddr: 0x130D8, symBinAddr: 0x100015AB8, symSize: 0x3C }
  - { offsetInCU: 0x1EB20, offset: 0x1EB20, size: 0x8, addend: 0x0, symName: __ZNSt3__15dequeINS0_I5TokenNS_9allocatorIS1_EEEENS2_IS4_EEE21_ConstructTransactionD1B7v160006Ev, symObjAddr: 0x13114, symBinAddr: 0x100015AF4, symSize: 0x2C }
  - { offsetInCU: 0x1EB4A, offset: 0x1EB4A, size: 0x8, addend: 0x0, symName: __ZNSt3__15dequeINS0_I5TokenNS_9allocatorIS1_EEEENS2_IS4_EEE13__deque_rangeppB7v160006Ev, symObjAddr: 0x13140, symBinAddr: 0x100015B20, symSize: 0x64 }
  - { offsetInCU: 0x1EB70, offset: 0x1EB70, size: 0x8, addend: 0x0, symName: __ZNSt3__15dequeINS0_I5TokenNS_9allocatorIS1_EEEENS2_IS4_EEE18__recommend_blocksB7v160006Em, symObjAddr: 0x1328C, symBinAddr: 0x100015C6C, symSize: 0x40 }
  - { offsetInCU: 0x1EB94, offset: 0x1EB94, size: 0x8, addend: 0x0, symName: __ZNSt3__114__split_bufferIPNS_5dequeI5TokenNS_9allocatorIS2_EEEERNS3_IS6_EEE5beginB7v160006Ev, symObjAddr: 0x132CC, symBinAddr: 0x100015CAC, symSize: 0x18 }
  - { offsetInCU: 0x1EBBA, offset: 0x1EBBA, size: 0x8, addend: 0x0, symName: __ZNSt3__114__split_bufferIPNS_5dequeI5TokenNS_9allocatorIS2_EEEERNS3_IS6_EEE3endB7v160006Ev, symObjAddr: 0x132E4, symBinAddr: 0x100015CC4, symSize: 0x18 }
  - { offsetInCU: 0x1EBE0, offset: 0x1EBE0, size: 0x8, addend: 0x0, symName: __ZNSt3__114__split_bufferIPNS_5dequeI5TokenNS_9allocatorIS2_EEEERNS3_IS6_EEE9push_backB7v160006ERKS6_, symObjAddr: 0x132FC, symBinAddr: 0x100015CDC, symSize: 0x260 }
  - { offsetInCU: 0x1EC58, offset: 0x1EC58, size: 0x8, addend: 0x0, symName: __ZNSt3__116__deque_iteratorINS_5dequeI5TokenNS_9allocatorIS2_EEEEPS5_RS5_PS6_lLl85EEpLB7v160006El, symObjAddr: 0x1355C, symBinAddr: 0x100015F3C, symSize: 0x120 }
  - { offsetInCU: 0x1ECAA, offset: 0x1ECAA, size: 0x8, addend: 0x0, symName: __ZNSt3__15dequeINS0_I5TokenNS_9allocatorIS1_EEEENS2_IS4_EEE13__deque_rangeC2B7v160006ENS_16__deque_iteratorIS4_PS4_RS4_PS9_lLl85EEESC_, symObjAddr: 0x1367C, symBinAddr: 0x10001605C, symSize: 0x34 }
  - { offsetInCU: 0x1ECF2, offset: 0x1ECF2, size: 0x8, addend: 0x0, symName: __ZNSt3__15dequeINS0_I5TokenNS_9allocatorIS1_EEEENS2_IS4_EEE19__deque_block_rangeC1B7v160006EPS4_S8_, symObjAddr: 0x136E0, symBinAddr: 0x1000160C0, symSize: 0x3C }
  - { offsetInCU: 0x1ED3A, offset: 0x1ED3A, size: 0x8, addend: 0x0, symName: __ZNSt3__15dequeINS0_I5TokenNS_9allocatorIS1_EEEENS2_IS4_EEE19__deque_block_rangeC2B7v160006EPS4_S8_, symObjAddr: 0x1371C, symBinAddr: 0x1000160FC, symSize: 0x2C }
  - { offsetInCU: 0x1ED82, offset: 0x1ED82, size: 0x8, addend: 0x0, symName: __ZNSt3__15dequeINS0_I5TokenNS_9allocatorIS1_EEEENS2_IS4_EEE21_ConstructTransactionC2B7v160006EPS6_RNS6_19__deque_block_rangeE, symObjAddr: 0x13748, symBinAddr: 0x100016128, symSize: 0x48 }
  - { offsetInCU: 0x1EDCA, offset: 0x1EDCA, size: 0x8, addend: 0x0, symName: __ZNSt3__15dequeINS0_I5TokenNS_9allocatorIS1_EEEENS2_IS4_EEE21_ConstructTransactionD2B7v160006Ev, symObjAddr: 0x13790, symBinAddr: 0x100016170, symSize: 0x5C }
...
