---
triple:          'arm64-apple-darwin'
binary-path:     tinyCompiler
relocations:
  - { offsetInCU: 0x40, offset: 0x40, size: 0x8, addend: 0x0, symName: _yyleng, symObjAddr: 0x5B350, symBinAddr: 0x100018008, symSize: 0x0 }
  - { offsetInCU: 0x7E, offset: 0x7E, size: 0x8, addend: 0x0, symName: _yyin, symObjAddr: 0x5B358, symBinAddr: 0x100018010, symSize: 0x0 }
  - { offsetInCU: 0x2A0, offset: 0x2A0, size: 0x8, addend: 0x0, symName: _yyout, symObjAddr: 0x5B360, symBinAddr: 0x100018018, symSize: 0x0 }
  - { offsetInCU: 0x2B6, offset: 0x2B6, size: 0x8, addend: 0x0, symName: _yylineno, symObjAddr: 0xE8D8, symBinAddr: 0x100018000, symSize: 0x0 }
  - { offsetInCU: 0x2CC, offset: 0x2CC, size: 0x8, addend: 0x0, symName: _yy_flex_debug, symObjAddr: 0x5B368, symBinAddr: 0x100018020, symSize: 0x0 }
  - { offsetInCU: 0x2E2, offset: 0x2E2, size: 0x8, addend: 0x0, symName: _yytext, symObjAddr: 0x5B370, symBinAddr: 0x100018028, symSize: 0x0 }
  - { offsetInCU: 0x2F7, offset: 0x2F7, size: 0x8, addend: 0x0, symName: _sign_table, symObjAddr: 0x5B378, symBinAddr: 0x100018030, symSize: 0x0 }
  - { offsetInCU: 0x7661, offset: 0x7661, size: 0x8, addend: 0x0, symName: __ZNSt3__124__put_character_sequenceB7v160006IcNS_11char_traitsIcEEEERNS_13basic_ostreamIT_T0_EES7_PKS4_m, symObjAddr: 0xA5A8, symBinAddr: 0x10000E79C, symSize: 0x1EC }
  - { offsetInCU: 0x994B, offset: 0x994B, size: 0x8, addend: 0x0, symName: __ZNSt3__1neB7v160006IcNS_11char_traitsIcEENS_9allocatorIcEEEEbRKNS_12basic_stringIT_T0_T1_EEPKS6_, symObjAddr: 0xCB8, symBinAddr: 0x100004EAC, symSize: 0x34 }
  - { offsetInCU: 0x99A3, offset: 0x99A3, size: 0x8, addend: 0x0, symName: __ZNSt3__1lsB7v160006INS_11char_traitsIcEEEERNS_13basic_ostreamIcT_EES6_PKc, symObjAddr: 0x1194, symBinAddr: 0x100005388, symSize: 0x48 }
  - { offsetInCU: 0x99E9, offset: 0x99E9, size: 0x8, addend: 0x0, symName: __ZNSt3__14endlB7v160006IcNS_11char_traitsIcEEEERNS_13basic_ostreamIT_T0_EES7_, symObjAddr: 0x1208, symBinAddr: 0x1000053FC, symSize: 0x58 }
  - { offsetInCU: 0x9A29, offset: 0x9A29, size: 0x8, addend: 0x0, symName: __ZNSt3__1eqB7v160006IcNS_11char_traitsIcEENS_9allocatorIcEEEEbRKNS_12basic_stringIT_T0_T1_EEPKS6_, symObjAddr: 0x1290, symBinAddr: 0x100005484, symSize: 0xAC }
  - { offsetInCU: 0x9A90, offset: 0x9A90, size: 0x8, addend: 0x0, symName: __ZNSt3__14findB7v160006INS_11__wrap_iterIPNS_12basic_stringIcNS_11char_traitsIcEENS_9allocatorIcEEEEEES7_EET_SA_SA_RKT0_, symObjAddr: 0x139C, symBinAddr: 0x100005590, symSize: 0x74 }
  - { offsetInCU: 0x9AEA, offset: 0x9AEA, size: 0x8, addend: 0x0, symName: __ZNSt3__1neB7v160006IPNS_12basic_stringIcNS_11char_traitsIcEENS_9allocatorIcEEEEEEbRKNS_11__wrap_iterIT_EESC_, symObjAddr: 0x1470, symBinAddr: 0x100005664, symSize: 0x34 }
  - { offsetInCU: 0x9B2D, offset: 0x9B2D, size: 0x8, addend: 0x0, symName: __ZNSt3__18distanceB7v160006INS_11__wrap_iterIPNS_12basic_stringIcNS_11char_traitsIcEENS_9allocatorIcEEEEEEEENS_15iterator_traitsIT_E15difference_typeESB_SB_, symObjAddr: 0x14A4, symBinAddr: 0x100005698, symSize: 0x3C }
  - { offsetInCU: 0x9B70, offset: 0x9B70, size: 0x8, addend: 0x0, symName: __ZNSt3__1plB7v160006IcNS_11char_traitsIcEENS_9allocatorIcEEEENS_12basic_stringIT_T0_T1_EEOS9_PKS6_, symObjAddr: 0x21B4, symBinAddr: 0x1000063A8, symSize: 0x40 }
  - { offsetInCU: 0x9BC8, offset: 0x9BC8, size: 0x8, addend: 0x0, symName: __ZNSt3__1plB7v160006IcNS_11char_traitsIcEENS_9allocatorIcEEEENS_12basic_stringIT_T0_T1_EEPKS6_OS9_, symObjAddr: 0x21F4, symBinAddr: 0x1000063E8, symSize: 0x44 }
  - { offsetInCU: 0x9C20, offset: 0x9C20, size: 0x8, addend: 0x0, symName: __ZNSt3__1lsB7v160006IcNS_11char_traitsIcEENS_9allocatorIcEEEERNS_13basic_ostreamIT_T0_EES9_RKNS_12basic_stringIS6_S7_T1_EE, symObjAddr: 0x2290, symBinAddr: 0x100006484, symSize: 0x4C }
  - { offsetInCU: 0x9C78, offset: 0x9C78, size: 0x8, addend: 0x0, symName: __ZNSt3__1neB7v160006IPKcEEbRKNS_11__wrap_iterIT_EES7_, symObjAddr: 0x25E4, symBinAddr: 0x1000067D8, symSize: 0x34 }
  - { offsetInCU: 0x9CBB, offset: 0x9CBB, size: 0x8, addend: 0x0, symName: __ZNSt3__1neB7v160006ERKNS_16__deque_iteratorI5TokenPKS1_RS2_PKS3_lLl85EEES9_, symObjAddr: 0x2968, symBinAddr: 0x100006B5C, symSize: 0x34 }
  - { offsetInCU: 0x9EBF, offset: 0x9EBF, size: 0x8, addend: 0x0, symName: __ZNSt3__1eqB7v160006IPNS_12basic_stringIcNS_11char_traitsIcEENS_9allocatorIcEEEEEEbRKNS_11__wrap_iterIT_EESC_, symObjAddr: 0x6014, symBinAddr: 0x10000A208, symSize: 0x48 }
  - { offsetInCU: 0x9F02, offset: 0x9F02, size: 0x8, addend: 0x0, symName: __ZNSt3__1eqB7v160006IPKcEEbRKNS_11__wrap_iterIT_EES7_, symObjAddr: 0x60AC, symBinAddr: 0x10000A2A0, symSize: 0x48 }
  - { offsetInCU: 0x9F45, offset: 0x9F45, size: 0x8, addend: 0x0, symName: __ZNSt3__119__debug_db_insert_cB7v160006INS_12basic_stringIcNS_11char_traitsIcEENS_9allocatorIcEEEEEEvPT_, symObjAddr: 0x628C, symBinAddr: 0x10000A480, symSize: 0x10 }
  - { offsetInCU: 0x9F76, offset: 0x9F76, size: 0x8, addend: 0x0, symName: __ZNSt3__115__debug_db_swapB7v160006INS_12basic_stringIcNS_11char_traitsIcEENS_9allocatorIcEEEEEEvPT_S8_, symObjAddr: 0x62D4, symBinAddr: 0x10000A4C8, symSize: 0x14 }
  - { offsetInCU: 0x9FB5, offset: 0x9FB5, size: 0x8, addend: 0x0, symName: __ZNSt3__112__to_addressB7v160006IKcEEPT_S3_, symObjAddr: 0x6564, symBinAddr: 0x10000A758, symSize: 0x14 }
  - { offsetInCU: 0xA01D, offset: 0xA01D, size: 0x8, addend: 0x0, symName: __ZNSt3__125__debug_db_invalidate_allB7v160006INS_12basic_stringIcNS_11char_traitsIcEENS_9allocatorIcEEEEEEvPT_, symObjAddr: 0x668C, symBinAddr: 0x10000A880, symSize: 0x10 }
  - { offsetInCU: 0xA081, offset: 0xA081, size: 0x8, addend: 0x0, symName: __ZNSt3__119__debug_db_insert_cB7v160006INS_6vectorINS_12basic_stringIcNS_11char_traitsIcEENS_9allocatorIcEEEENS5_IS7_EEEEEEvPT_, symObjAddr: 0x6868, symBinAddr: 0x10000AA5C, symSize: 0x10 }
  - { offsetInCU: 0xA0B2, offset: 0xA0B2, size: 0x8, addend: 0x0, symName: __ZNSt3__118__debug_db_erase_cB7v160006INS_6vectorINS_12basic_stringIcNS_11char_traitsIcEENS_9allocatorIcEEEENS5_IS7_EEEEEEvPT_, symObjAddr: 0x6B48, symBinAddr: 0x10000AD3C, symSize: 0x10 }
  - { offsetInCU: 0xA0E3, offset: 0xA0E3, size: 0x8, addend: 0x0, symName: __ZNSt3__112__to_addressB7v160006INS_12basic_stringIcNS_11char_traitsIcEENS_9allocatorIcEEEEEEPT_S8_, symObjAddr: 0x6C8C, symBinAddr: 0x10000AE80, symSize: 0x14 }
  - { offsetInCU: 0xA118, offset: 0xA118, size: 0x8, addend: 0x0, symName: __ZNSt3__119__libcpp_deallocateB7v160006EPvmm, symObjAddr: 0x6DC4, symBinAddr: 0x10000AFB8, symSize: 0x30 }
  - { offsetInCU: 0xA160, offset: 0xA160, size: 0x8, addend: 0x0, symName: __ZNSt3__127__do_deallocate_handle_sizeB7v160006IJEEEvPvmDpT_, symObjAddr: 0x6DF4, symBinAddr: 0x10000AFE8, symSize: 0x28 }
  - { offsetInCU: 0xA19E, offset: 0xA19E, size: 0x8, addend: 0x0, symName: __ZNSt3__124__libcpp_operator_deleteB7v160006IJPvEEEvDpT_, symObjAddr: 0x6E1C, symBinAddr: 0x10000B010, symSize: 0x24 }
  - { offsetInCU: 0xA1D3, offset: 0xA1D3, size: 0x8, addend: 0x0, symName: __ZNSt3__1neB7v160006ERKNS_16__deque_iteratorI5TokenPS1_RS1_PS2_lLl85EEES7_, symObjAddr: 0x760C, symBinAddr: 0x10000B800, symSize: 0x34 }
  - { offsetInCU: 0xA210, offset: 0xA210, size: 0x8, addend: 0x0, symName: __ZNSt3__1eqB7v160006ERKNS_16__deque_iteratorI5TokenPS1_RS1_PS2_lLl85EEES7_, symObjAddr: 0x7818, symBinAddr: 0x10000BA0C, symSize: 0x30 }
  - { offsetInCU: 0xA24D, offset: 0xA24D, size: 0x8, addend: 0x0, symName: __ZNSt3__112__to_addressB7v160006IP5TokenEEPT_S4_, symObjAddr: 0x7B98, symBinAddr: 0x10000BD8C, symSize: 0x14 }
  - { offsetInCU: 0xA282, offset: 0xA282, size: 0x8, addend: 0x0, symName: __ZNSt3__13maxB7v160006ImEERKT_S3_S3_, symObjAddr: 0x8838, symBinAddr: 0x10000CA2C, symSize: 0x2C }
  - { offsetInCU: 0xA71E, offset: 0xA71E, size: 0x8, addend: 0x0, symName: __ZNSt3__14swapB7v160006IPP5TokenEENS_9enable_ifIXaasr21is_move_constructibleIT_EE5valuesr18is_move_assignableIS5_EE5valueEvE4typeERS5_S8_, symObjAddr: 0x8E48, symBinAddr: 0x10000D03C, symSize: 0x3C }
  - { offsetInCU: 0xA76F, offset: 0xA76F, size: 0x8, addend: 0x0, symName: __ZNSt3__14moveB7v160006IPP5TokenS3_EET0_T_S5_S4_, symObjAddr: 0x8F2C, symBinAddr: 0x10000D120, symSize: 0x40 }
  - { offsetInCU: 0xA7E5, offset: 0xA7E5, size: 0x8, addend: 0x0, symName: __ZNSt3__16__moveB7v160006INS_17_ClassicAlgPolicyEPP5TokenS4_S4_EENS_4pairIT0_T2_EES6_T1_S7_, symObjAddr: 0x90D0, symBinAddr: 0x10000D2C4, symSize: 0x44 }
  - { offsetInCU: 0xA851, offset: 0xA851, size: 0x8, addend: 0x0, symName: __ZNSt3__123__dispatch_copy_or_moveB7v160006INS_17_ClassicAlgPolicyENS_11__move_loopIS1_EENS_14__move_trivialEPP5TokenS7_S7_EENS_4pairIT2_T4_EES9_T3_SA_, symObjAddr: 0x9114, symBinAddr: 0x10000D308, symSize: 0x44 }
  - { offsetInCU: 0xA8CF, offset: 0xA8CF, size: 0x8, addend: 0x0, symName: __ZNSt3__121__unwrap_and_dispatchB7v160006INS_10__overloadINS_11__move_loopINS_17_ClassicAlgPolicyEEENS_14__move_trivialEEEPP5TokenS9_S9_Li0EEENS_4pairIT0_T2_EESB_T1_SC_, symObjAddr: 0x9158, symBinAddr: 0x10000D34C, symSize: 0xB4 }
  - { offsetInCU: 0xA95D, offset: 0xA95D, size: 0x8, addend: 0x0, symName: __ZNSt3__114__unwrap_rangeB7v160006IPP5TokenS3_EENS_4pairIT0_S5_EET_S7_, symObjAddr: 0x920C, symBinAddr: 0x10000D400, symSize: 0x60 }
  - { offsetInCU: 0xAB21, offset: 0xAB21, size: 0x8, addend: 0x0, symName: __ZNSt3__113__unwrap_iterB7v160006IPP5TokenNS_18__unwrap_iter_implIS3_Lb1EEELi0EEEDTclsrT0_8__unwrapclsr3stdE7declvalIT_EEEES7_, symObjAddr: 0x92B4, symBinAddr: 0x10000D4A8, symSize: 0x24 }
  - { offsetInCU: 0xAB65, offset: 0xAB65, size: 0x8, addend: 0x0, symName: __ZNSt3__19make_pairB7v160006IPP5TokenS3_EENS_4pairINS_18__unwrap_ref_decayIT_E4typeENS5_IT0_E4typeEEEOS6_OS9_, symObjAddr: 0x92D8, symBinAddr: 0x10000D4CC, symSize: 0x38 }
  - { offsetInCU: 0xABB4, offset: 0xABB4, size: 0x8, addend: 0x0, symName: __ZNSt3__114__rewrap_rangeB7v160006IPP5TokenS3_EET_S4_T0_, symObjAddr: 0x9310, symBinAddr: 0x10000D504, symSize: 0x2C }
  - { offsetInCU: 0xAC00, offset: 0xAC00, size: 0x8, addend: 0x0, symName: __ZNSt3__113__rewrap_iterB7v160006IPP5TokenS3_NS_18__unwrap_iter_implIS3_Lb1EEEEET_S6_T0_, symObjAddr: 0x933C, symBinAddr: 0x10000D530, symSize: 0x3C }
  - { offsetInCU: 0xAC55, offset: 0xAC55, size: 0x8, addend: 0x0, symName: __ZNSt3__119__copy_trivial_implB7v160006IP5TokenS2_EENS_4pairIPT_PT0_EES5_S5_S7_, symObjAddr: 0x9378, symBinAddr: 0x10000D56C, symSize: 0x84 }
  - { offsetInCU: 0xACBD, offset: 0xACBD, size: 0x8, addend: 0x0, symName: __ZNSt3__19make_pairB7v160006IRPP5TokenS3_EENS_4pairINS_18__unwrap_ref_decayIT_E4typeENS6_IT0_E4typeEEEOS7_OSA_, symObjAddr: 0x93FC, symBinAddr: 0x10000D5F0, symSize: 0x38 }
  - { offsetInCU: 0xAD5F, offset: 0xAD5F, size: 0x8, addend: 0x0, symName: __ZNSt3__18distanceB7v160006INS_13move_iteratorIPP5TokenEEEENS_15iterator_traitsIT_E15difference_typeES7_S7_, symObjAddr: 0x9588, symBinAddr: 0x10000D77C, symSize: 0x3C }
  - { offsetInCU: 0xADA2, offset: 0xADA2, size: 0x8, addend: 0x0, symName: __ZNSt3__110__distanceB7v160006INS_13move_iteratorIPP5TokenEEEENS_15iterator_traitsIT_E15difference_typeES7_S7_NS_26random_access_iterator_tagE, symObjAddr: 0x96C0, symBinAddr: 0x10000D8B4, symSize: 0x30 }
  - { offsetInCU: 0xADEF, offset: 0xADEF, size: 0x8, addend: 0x0, symName: __ZNSt3__1miB7v160006IPP5TokenS3_EEDTmicldtfp_4baseEcldtfp0_4baseEERKNS_13move_iteratorIT_EERKNS5_IT0_EE, symObjAddr: 0x96F0, symBinAddr: 0x10000D8E4, symSize: 0x48 }
  - { offsetInCU: 0xAE3E, offset: 0xAE3E, size: 0x8, addend: 0x0, symName: __ZNSt3__117__libcpp_allocateB7v160006Emm, symObjAddr: 0x9918, symBinAddr: 0x10000DB0C, symSize: 0x28 }
  - { offsetInCU: 0xAE7B, offset: 0xAE7B, size: 0x8, addend: 0x0, symName: __ZNSt3__121__libcpp_operator_newB7v160006IJmEEEPvDpT_, symObjAddr: 0x9958, symBinAddr: 0x10000DB4C, symSize: 0x24 }
  - { offsetInCU: 0xAEB4, offset: 0xAEB4, size: 0x8, addend: 0x0, symName: __ZNSt3__113move_backwardB7v160006IPP5TokenS3_EET0_T_S5_S4_, symObjAddr: 0x997C, symBinAddr: 0x10000DB70, symSize: 0x40 }
  - { offsetInCU: 0xAF0E, offset: 0xAF0E, size: 0x8, addend: 0x0, symName: __ZNSt3__115__move_backwardB7v160006INS_17_ClassicAlgPolicyEPP5TokenS4_S4_EENS_4pairIT0_T2_EES6_T1_S7_, symObjAddr: 0x99BC, symBinAddr: 0x10000DBB0, symSize: 0x44 }
  - { offsetInCU: 0xAF7A, offset: 0xAF7A, size: 0x8, addend: 0x0, symName: __ZNSt3__123__dispatch_copy_or_moveB7v160006INS_17_ClassicAlgPolicyENS_20__move_backward_loopIS1_EENS_23__move_backward_trivialEPP5TokenS7_S7_EENS_4pairIT2_T4_EES9_T3_SA_, symObjAddr: 0x9A00, symBinAddr: 0x10000DBF4, symSize: 0x44 }
  - { offsetInCU: 0xAFF8, offset: 0xAFF8, size: 0x8, addend: 0x0, symName: __ZNSt3__121__unwrap_and_dispatchB7v160006INS_10__overloadINS_20__move_backward_loopINS_17_ClassicAlgPolicyEEENS_23__move_backward_trivialEEEPP5TokenS9_S9_Li0EEENS_4pairIT0_T2_EESB_T1_SC_, symObjAddr: 0x9A44, symBinAddr: 0x10000DC38, symSize: 0xB4 }
  - { offsetInCU: 0xB0CC, offset: 0xB0CC, size: 0x8, addend: 0x0, symName: __ZNSt3__128__copy_backward_trivial_implB7v160006IP5TokenS2_EENS_4pairIPT_PT0_EES5_S5_S7_, symObjAddr: 0x9B40, symBinAddr: 0x10000DD34, symSize: 0x94 }
  - { offsetInCU: 0xB134, offset: 0xB134, size: 0x8, addend: 0x0, symName: __ZNSt3__19make_pairB7v160006IRPP5TokenS4_EENS_4pairINS_18__unwrap_ref_decayIT_E4typeENS6_IT0_E4typeEEEOS7_OSA_, symObjAddr: 0x9BD4, symBinAddr: 0x10000DDC8, symSize: 0x38 }
  - { offsetInCU: 0xB183, offset: 0xB183, size: 0x8, addend: 0x0, symName: __ZNSt3__13maxB7v160006ImNS_6__lessImmEEEERKT_S5_S5_T0_, symObjAddr: 0x9C7C, symBinAddr: 0x10000DE70, symSize: 0x54 }
  - { offsetInCU: 0xB218, offset: 0xB218, size: 0x8, addend: 0x0, symName: __ZNSt3__119__allocate_at_leastB7v160006INS_9allocatorIP5TokenEEEENS_19__allocation_resultINS_16allocator_traitsIT_E7pointerEEERS7_m, symObjAddr: 0x9E14, symBinAddr: 0x10000E008, symSize: 0x40 }
  - { offsetInCU: 0xB25B, offset: 0xB25B, size: 0x8, addend: 0x0, symName: __ZNSt3__112__to_addressB7v160006I5TokenEEPT_S3_, symObjAddr: 0xA48C, symBinAddr: 0x10000E680, symSize: 0x14 }
  - { offsetInCU: 0xB290, offset: 0xB290, size: 0x8, addend: 0x0, symName: __ZNSt3__116__pad_and_outputB7v160006IcNS_11char_traitsIcEEEENS_19ostreambuf_iteratorIT_T0_EES6_PKS4_S8_S8_RNS_8ios_baseES4_, symObjAddr: 0xA7E4, symBinAddr: 0x10000E9D8, symSize: 0x240 }
  - { offsetInCU: 0xB35F, offset: 0xB35F, size: 0x8, addend: 0x0, symName: __ZNSt3__19use_facetB7v160006INS_5ctypeIcEEEERKT_RKNS_6localeE, symObjAddr: 0xAD78, symBinAddr: 0x10000EF6C, symSize: 0x2C }
  - { offsetInCU: 0xB82E, offset: 0xB82E, size: 0x8, addend: 0x0, symName: __ZNSt3__118__constexpr_strlenB7v160006EPKc, symObjAddr: 0xAE10, symBinAddr: 0x10000F004, symSize: 0x24 }
  - { offsetInCU: 0xB85A, offset: 0xB85A, size: 0x8, addend: 0x0, symName: __ZNSt3__1eqB7v160006INS_9allocatorIcEEEEbRKNS_12basic_stringIcNS_11char_traitsIcEET_EES9_, symObjAddr: 0xAEC8, symBinAddr: 0x10000F0BC, symSize: 0x148 }
  - { offsetInCU: 0xB8CD, offset: 0xB8CD, size: 0x8, addend: 0x0, symName: __ZNSt3__118__constexpr_memcmpB7v160006IcEEiPKT_S3_m, symObjAddr: 0xB0B4, symBinAddr: 0x10000F2A8, symSize: 0x34 }
  - { offsetInCU: 0xB91E, offset: 0xB91E, size: 0x8, addend: 0x0, symName: __ZNSt3__110__distanceB7v160006INS_11__wrap_iterIPNS_12basic_stringIcNS_11char_traitsIcEENS_9allocatorIcEEEEEEEENS_15iterator_traitsIT_E15difference_typeESB_SB_NS_26random_access_iterator_tagE, symObjAddr: 0xB0E8, symBinAddr: 0x10000F2DC, symSize: 0x30 }
  - { offsetInCU: 0xB96B, offset: 0xB96B, size: 0x8, addend: 0x0, symName: __ZNSt3__1miB7v160006IPNS_12basic_stringIcNS_11char_traitsIcEENS_9allocatorIcEEEES7_EEDTmicldtfp_4baseEcldtfp0_4baseEERKNS_11__wrap_iterIT_EERKNS9_IT0_EE, symObjAddr: 0xB118, symBinAddr: 0x10000F30C, symSize: 0x48 }
  - { offsetInCU: 0xB9B7, offset: 0xB9B7, size: 0x8, addend: 0x0, symName: __ZNSt3__13minB7v160006ImEERKT_S3_S3_, symObjAddr: 0xB718, symBinAddr: 0x10000F90C, symSize: 0x2C }
  - { offsetInCU: 0xBBFB, offset: 0xBBFB, size: 0x8, addend: 0x0, symName: __ZNSt3__13minB7v160006ImNS_6__lessImmEEEERKT_S5_S5_T0_, symObjAddr: 0xB7A4, symBinAddr: 0x10000F998, symSize: 0x54 }
  - { offsetInCU: 0xBC55, offset: 0xBC55, size: 0x8, addend: 0x0, symName: __ZNSt3__120__throw_length_errorB7v160006EPKc, symObjAddr: 0xB850, symBinAddr: 0x10000FA44, symSize: 0x64 }
  - { offsetInCU: 0xBC7D, offset: 0xBC7D, size: 0x8, addend: 0x0, symName: __ZNSt3__119__allocate_at_leastB7v160006INS_9allocatorINS_12basic_stringIcNS_11char_traitsIcEENS1_IcEEEEEEEENS_19__allocation_resultINS_16allocator_traitsIT_E7pointerEEERSA_m, symObjAddr: 0xBA50, symBinAddr: 0x10000FC44, symSize: 0x40 }
  - { offsetInCU: 0xBCC0, offset: 0xBCC0, size: 0x8, addend: 0x0, symName: __ZNSt3__142__uninitialized_allocator_move_if_noexceptB7v160006INS_9allocatorINS_12basic_stringIcNS_11char_traitsIcEENS1_IcEEEEEENS_16reverse_iteratorIPS6_EESA_SA_EET2_RT_T0_T1_SB_, symObjAddr: 0xBC08, symBinAddr: 0x10000FDFC, symSize: 0x12C }
  - { offsetInCU: 0xBD60, offset: 0xBD60, size: 0x8, addend: 0x0, symName: __ZNSt3__14swapB7v160006IPNS_12basic_stringIcNS_11char_traitsIcEENS_9allocatorIcEEEEEENS_9enable_ifIXaasr21is_move_constructibleIT_EE5valuesr18is_move_assignableIS9_EE5valueEvE4typeERS9_SC_, symObjAddr: 0xBD80, symBinAddr: 0x10000FF74, symSize: 0x3C }
  - { offsetInCU: 0xBDB1, offset: 0xBDB1, size: 0x8, addend: 0x0, symName: __ZNSt3__125__debug_db_invalidate_allB7v160006INS_6vectorINS_12basic_stringIcNS_11char_traitsIcEENS_9allocatorIcEEEENS5_IS7_EEEEEEvPT_, symObjAddr: 0xBE84, symBinAddr: 0x100010078, symSize: 0x10 }
  - { offsetInCU: 0xBDE2, offset: 0xBDE2, size: 0x8, addend: 0x0, symName: __ZNSt3__122__make_exception_guardB7v160006INS_29_AllocatorDestroyRangeReverseINS_9allocatorINS_12basic_stringIcNS_11char_traitsIcEENS2_IcEEEEEENS_16reverse_iteratorIPS7_EEEEEENS_28__exception_guard_exceptionsIT_EESE_, symObjAddr: 0xBE94, symBinAddr: 0x100010088, symSize: 0x4C }
  - { offsetInCU: 0xBE18, offset: 0xBE18, size: 0x8, addend: 0x0, symName: __ZNSt3__1neB7v160006IPNS_12basic_stringIcNS_11char_traitsIcEENS_9allocatorIcEEEES7_EEbRKNS_16reverse_iteratorIT_EERKNS8_IT0_EE, symObjAddr: 0xBF24, symBinAddr: 0x100010118, symSize: 0x48 }
  - { offsetInCU: 0xBE64, offset: 0xBE64, size: 0x8, addend: 0x0, symName: __ZNSt3__112__to_addressB7v160006INS_16reverse_iteratorIPNS_12basic_stringIcNS_11char_traitsIcEENS_9allocatorIcEEEEEEvEENS_5decayIDTclsr19__to_address_helperIT_EE6__callclsr3stdE7declvalIRKSB_EEEEE4typeESD_, symObjAddr: 0xBFA0, symBinAddr: 0x100010194, symSize: 0x24 }
  - { offsetInCU: 0xBEC3, offset: 0xBEC3, size: 0x8, addend: 0x0, symName: __ZNSt3__119__allocator_destroyB7v160006INS_9allocatorINS_12basic_stringIcNS_11char_traitsIcEENS1_IcEEEEEENS_16reverse_iteratorINS8_IPS6_EEEESB_EEvRT_T0_T1_, symObjAddr: 0xC280, symBinAddr: 0x100010474, symSize: 0x70 }
  - { offsetInCU: 0xBF28, offset: 0xBF28, size: 0x8, addend: 0x0, symName: __ZNSt3__1neB7v160006INS_16reverse_iteratorIPNS_12basic_stringIcNS_11char_traitsIcEENS_9allocatorIcEEEEEES9_EEbRKNS1_IT_EERKNS1_IT0_EE, symObjAddr: 0xC32C, symBinAddr: 0x100010520, symSize: 0x60 }
  - { offsetInCU: 0xBF74, offset: 0xBF74, size: 0x8, addend: 0x0, symName: __ZNSt3__112__to_addressB7v160006INS_16reverse_iteratorINS1_IPNS_12basic_stringIcNS_11char_traitsIcEENS_9allocatorIcEEEEEEEEvEENS_5decayIDTclsr19__to_address_helperIT_EE6__callclsr3stdE7declvalIRKSC_EEEEE4typeESE_, symObjAddr: 0xC38C, symBinAddr: 0x100010580, symSize: 0x24 }
  - { offsetInCU: 0xBFD3, offset: 0xBFD3, size: 0x8, addend: 0x0, symName: __ZNSt3__18distanceB7v160006INS_16__deque_iteratorI5TokenPKS2_RS3_PKS4_lLl85EEEEENS_15iterator_traitsIT_E15difference_typeESA_SA_, symObjAddr: 0xCCF8, symBinAddr: 0x100010EEC, symSize: 0x4C }
  - { offsetInCU: 0xC016, offset: 0xC016, size: 0x8, addend: 0x0, symName: __ZNSt3__1neB7v160006ERKNS_5dequeI5TokenNS_9allocatorIS1_EEE13__deque_rangeES7_, symObjAddr: 0xD400, symBinAddr: 0x1000115F4, symSize: 0x34 }
  - { offsetInCU: 0xC053, offset: 0xC053, size: 0x8, addend: 0x0, symName: __ZNSt3__110__distanceB7v160006INS_16__deque_iteratorI5TokenPKS2_RS3_PKS4_lLl85EEEEENS_15iterator_traitsIT_E15difference_typeESA_SA_NS_26random_access_iterator_tagE, symObjAddr: 0xD57C, symBinAddr: 0x100011770, symSize: 0x38 }
  - { offsetInCU: 0xC0A0, offset: 0xC0A0, size: 0x8, addend: 0x0, symName: __ZNSt3__1miB7v160006ERKNS_16__deque_iteratorI5TokenPKS1_RS2_PKS3_lLl85EEES9_, symObjAddr: 0xD5B4, symBinAddr: 0x1000117A8, symSize: 0xB0 }
  - { offsetInCU: 0xC0DD, offset: 0xC0DD, size: 0x8, addend: 0x0, symName: __ZNSt3__1eqB7v160006ERKNS_5dequeI5TokenNS_9allocatorIS1_EEE13__deque_rangeES7_, symObjAddr: 0xDA88, symBinAddr: 0x100011C7C, symSize: 0x30 }
  - { offsetInCU: 0xC11A, offset: 0xC11A, size: 0x8, addend: 0x0, symName: __ZNSt3__1eqB7v160006ERKNS_16__deque_iteratorI5TokenPKS1_RS2_PKS3_lLl85EEES9_, symObjAddr: 0xDD98, symBinAddr: 0x100011F8C, symSize: 0x30 }
  - { offsetInCU: 0xC5E5, offset: 0xC5E5, size: 0x8, addend: 0x0, symName: __ZSt28__throw_bad_array_new_lengthB7v160006v, symObjAddr: 0x98E4, symBinAddr: 0x10000DAD8, symSize: 0x34 }
  - { offsetInCU: 0xC94B, offset: 0xC94B, size: 0x8, addend: 0x0, symName: _token, symObjAddr: 0x5B390, symBinAddr: 0x100018048, symSize: 0x0 }
  - { offsetInCU: 0xCBE2, offset: 0xCBE2, size: 0x8, addend: 0x0, symName: __ZL7yy_init, symObjAddr: 0x5B3C0, symBinAddr: 0x100018078, symSize: 0x0 }
  - { offsetInCU: 0xCBFC, offset: 0xCBFC, size: 0x8, addend: 0x0, symName: __ZL8yy_start, symObjAddr: 0x5B3C4, symBinAddr: 0x10001807C, symSize: 0x0 }
  - { offsetInCU: 0xCC15, offset: 0xCC15, size: 0x8, addend: 0x0, symName: __ZL15yy_buffer_stack, symObjAddr: 0x5B3C8, symBinAddr: 0x100018080, symSize: 0x0 }
  - { offsetInCU: 0xCCDE, offset: 0xCCDE, size: 0x8, addend: 0x0, symName: __ZL19yy_buffer_stack_top, symObjAddr: 0x5B3D0, symBinAddr: 0x100018088, symSize: 0x0 }
  - { offsetInCU: 0xCCF9, offset: 0xCCF9, size: 0x8, addend: 0x0, symName: __ZL10yy_c_buf_p, symObjAddr: 0x5B3D8, symBinAddr: 0x100018090, symSize: 0x0 }
  - { offsetInCU: 0xCD13, offset: 0xCD13, size: 0x8, addend: 0x0, symName: __ZL12yy_hold_char, symObjAddr: 0x5B3E0, symBinAddr: 0x100018098, symSize: 0x0 }
  - { offsetInCU: 0xCD2D, offset: 0xCD2D, size: 0x8, addend: 0x0, symName: __ZL5yy_ec, symObjAddr: 0xEF68, symBinAddr: 0x100013510, symSize: 0x0 }
  - { offsetInCU: 0xCD71, offset: 0xCD71, size: 0x8, addend: 0x0, symName: __ZL9yy_accept, symObjAddr: 0xF068, symBinAddr: 0x100013610, symSize: 0x0 }
  - { offsetInCU: 0xCDA7, offset: 0xCDA7, size: 0x8, addend: 0x0, symName: __ZL23yy_last_accepting_state, symObjAddr: 0x5B3E4, symBinAddr: 0x10001809C, symSize: 0x0 }
  - { offsetInCU: 0xCDCD, offset: 0xCDCD, size: 0x8, addend: 0x0, symName: __ZL22yy_last_accepting_cpos, symObjAddr: 0x5B3E8, symBinAddr: 0x1000180A0, symSize: 0x0 }
  - { offsetInCU: 0xCDE7, offset: 0xCDE7, size: 0x8, addend: 0x0, symName: __ZL6yy_chk, symObjAddr: 0xF0D4, symBinAddr: 0x10001367C, symSize: 0x0 }
  - { offsetInCU: 0xCE0D, offset: 0xCE0D, size: 0x8, addend: 0x0, symName: __ZL7yy_base, symObjAddr: 0xF198, symBinAddr: 0x100013740, symSize: 0x0 }
  - { offsetInCU: 0xCE33, offset: 0xCE33, size: 0x8, addend: 0x0, symName: __ZL6yy_def, symObjAddr: 0xF206, symBinAddr: 0x1000137AE, symSize: 0x0 }
  - { offsetInCU: 0xCE4D, offset: 0xCE4D, size: 0x8, addend: 0x0, symName: __ZL7yy_meta, symObjAddr: 0xF274, symBinAddr: 0x10001381C, symSize: 0x0 }
  - { offsetInCU: 0xCE73, offset: 0xCE73, size: 0x8, addend: 0x0, symName: __ZL6yy_nxt, symObjAddr: 0xF294, symBinAddr: 0x10001383C, symSize: 0x0 }
  - { offsetInCU: 0xCE8D, offset: 0xCE8D, size: 0x8, addend: 0x0, symName: __ZL10yy_n_chars, symObjAddr: 0x5B3F0, symBinAddr: 0x1000180A8, symSize: 0x0 }
  - { offsetInCU: 0xCEA7, offset: 0xCEA7, size: 0x8, addend: 0x0, symName: __ZL27yy_did_buffer_switch_on_eof, symObjAddr: 0x5B3F8, symBinAddr: 0x1000180B0, symSize: 0x0 }
  - { offsetInCU: 0xCEC0, offset: 0xCEC0, size: 0x8, addend: 0x0, symName: __ZL19yy_buffer_stack_max, symObjAddr: 0x5B400, symBinAddr: 0x1000180B8, symSize: 0x0 }
  - { offsetInCU: 0xD1B2, offset: 0xD1B2, size: 0x8, addend: 0x0, symName: __ZNSt3__16vectorINS_12basic_stringIcNS_11char_traitsIcEENS_9allocatorIcEEEENS4_IS6_EEE26__swap_out_circular_bufferERNS_14__split_bufferIS6_RS7_EE, symObjAddr: 0xB558, symBinAddr: 0x10000F74C, symSize: 0x118 }
  - { offsetInCU: 0xF276, offset: 0xF276, size: 0x8, addend: 0x0, symName: __ZNSt3__16vectorINS_12basic_stringIcNS_11char_traitsIcEENS_9allocatorIcEEEENS4_IS6_EEEC1B7v160006Ev, symObjAddr: 0x0, symBinAddr: 0x1000041F4, symSize: 0x2C }
  - { offsetInCU: 0xF2A0, offset: 0xF2A0, size: 0x8, addend: 0x0, symName: __ZNSt3__16vectorINS_12basic_stringIcNS_11char_traitsIcEENS_9allocatorIcEEEENS4_IS6_EEED1B7v160006Ev, symObjAddr: 0x2C, symBinAddr: 0x100004220, symSize: 0x2C }
  - { offsetInCU: 0xF2C9, offset: 0xF2C9, size: 0x8, addend: 0x0, symName: __Z7compileNSt3__15dequeI5TokenNS_9allocatorIS1_EEEE, symObjAddr: 0x58, symBinAddr: 0x10000424C, symSize: 0xC08 }
  - { offsetInCU: 0xF4AD, offset: 0xF4AD, size: 0x8, addend: 0x0, symName: __ZNSt3__112basic_stringIcNS_11char_traitsIcEENS_9allocatorIcEEEC1B7v160006Ev, symObjAddr: 0xC60, symBinAddr: 0x100004E54, symSize: 0x2C }
  - { offsetInCU: 0xF4D7, offset: 0xF4D7, size: 0x8, addend: 0x0, symName: __ZNSt3__15dequeI5TokenNS_9allocatorIS1_EEEC1B7v160006Ev, symObjAddr: 0xC8C, symBinAddr: 0x100004E80, symSize: 0x2C }
  - { offsetInCU: 0xF501, offset: 0xF501, size: 0x8, addend: 0x0, symName: __ZNSt3__15dequeI5TokenNS_9allocatorIS1_EEE5frontEv, symObjAddr: 0xCEC, symBinAddr: 0x100004EE0, symSize: 0x58 }
  - { offsetInCU: 0xF529, offset: 0xF529, size: 0x8, addend: 0x0, symName: __ZNSt3__15dequeI5TokenNS_9allocatorIS1_EEE9push_backERKS1_, symObjAddr: 0xD44, symBinAddr: 0x100004F38, symSize: 0xA0 }
  - { offsetInCU: 0xF56F, offset: 0xF56F, size: 0x8, addend: 0x0, symName: __ZNSt3__15dequeI5TokenNS_9allocatorIS1_EEE9pop_frontEv, symObjAddr: 0xDE4, symBinAddr: 0x100004FD8, symSize: 0xB4 }
  - { offsetInCU: 0xF5A5, offset: 0xF5A5, size: 0x8, addend: 0x0, symName: __Z12process_mainPNSt3__15dequeI5TokenNS_9allocatorIS1_EEEE, symObjAddr: 0xE98, symBinAddr: 0x10000508C, symSize: 0x2D0 }
  - { offsetInCU: 0xF5D4, offset: 0xF5D4, size: 0x8, addend: 0x0, symName: __ZNSt3__112basic_stringIcNS_11char_traitsIcEENS_9allocatorIcEEEpLB7v160006EPKc, symObjAddr: 0x1168, symBinAddr: 0x10000535C, symSize: 0x2C }
  - { offsetInCU: 0xF609, offset: 0xF609, size: 0x8, addend: 0x0, symName: __ZNSt3__113basic_ostreamIcNS_11char_traitsIcEEElsB7v160006EPFRS3_S4_E, symObjAddr: 0x11DC, symBinAddr: 0x1000053D0, symSize: 0x2C }
  - { offsetInCU: 0xF63D, offset: 0xF63D, size: 0x8, addend: 0x0, symName: __ZNKSt3__15dequeI5TokenNS_9allocatorIS1_EEE5emptyB7v160006Ev, symObjAddr: 0x1260, symBinAddr: 0x100005454, symSize: 0x30 }
  - { offsetInCU: 0xF663, offset: 0xF663, size: 0x8, addend: 0x0, symName: __ZN5TokenC1ERKS_, symObjAddr: 0x133C, symBinAddr: 0x100005530, symSize: 0x34 }
  - { offsetInCU: 0xF698, offset: 0xF698, size: 0x8, addend: 0x0, symName: __ZNSt3__112basic_stringIcNS_11char_traitsIcEENS_9allocatorIcEEEpLB7v160006ERKS5_, symObjAddr: 0x1370, symBinAddr: 0x100005564, symSize: 0x2C }
  - { offsetInCU: 0xF6CD, offset: 0xF6CD, size: 0x8, addend: 0x0, symName: __ZNSt3__16vectorINS_12basic_stringIcNS_11char_traitsIcEENS_9allocatorIcEEEENS4_IS6_EEE5beginB7v160006Ev, symObjAddr: 0x1410, symBinAddr: 0x100005604, symSize: 0x30 }
  - { offsetInCU: 0xF6F5, offset: 0xF6F5, size: 0x8, addend: 0x0, symName: __ZNSt3__16vectorINS_12basic_stringIcNS_11char_traitsIcEENS_9allocatorIcEEEENS4_IS6_EEE3endB7v160006Ev, symObjAddr: 0x1440, symBinAddr: 0x100005634, symSize: 0x30 }
  - { offsetInCU: 0xF71D, offset: 0xF71D, size: 0x8, addend: 0x0, symName: __ZN5TokenD1Ev, symObjAddr: 0x14E0, symBinAddr: 0x1000056D4, symSize: 0x2C }
  - { offsetInCU: 0xF749, offset: 0xF749, size: 0x8, addend: 0x0, symName: __ZNSt3__16vectorINS_12basic_stringIcNS_11char_traitsIcEENS_9allocatorIcEEEENS4_IS6_EEE9push_backB7v160006ERKS6_, symObjAddr: 0x150C, symBinAddr: 0x100005700, symSize: 0x6C }
  - { offsetInCU: 0xF77F, offset: 0xF77F, size: 0x8, addend: 0x0, symName: __Z4evalNSt3__15dequeI5TokenNS_9allocatorIS1_EEEE, symObjAddr: 0x1578, symBinAddr: 0x10000576C, symSize: 0x6DC }
  - { offsetInCU: 0xF7D1, offset: 0xF7D1, size: 0x8, addend: 0x0, symName: __ZNSt3__15dequeI5TokenNS_9allocatorIS1_EEEC1ERKS4_, symObjAddr: 0x1C54, symBinAddr: 0x100005E48, symSize: 0x34 }
  - { offsetInCU: 0xF80C, offset: 0xF80C, size: 0x8, addend: 0x0, symName: __ZNSt3__15dequeI5TokenNS_9allocatorIS1_EEED1B7v160006Ev, symObjAddr: 0x1C88, symBinAddr: 0x100005E7C, symSize: 0x2C }
  - { offsetInCU: 0xF83B, offset: 0xF83B, size: 0x8, addend: 0x0, symName: __ZNSt3__112basic_stringIcNS_11char_traitsIcEENS_9allocatorIcEEEC1B7v160006IDnEEPKc, symObjAddr: 0x1CB4, symBinAddr: 0x100005EA8, symSize: 0x34 }
  - { offsetInCU: 0xF878, offset: 0xF878, size: 0x8, addend: 0x0, symName: __Z21isValidLeftExpressionRKNSt3__15dequeI5TokenNS_9allocatorIS1_EEEE, symObjAddr: 0x1CE8, symBinAddr: 0x100005EDC, symSize: 0x264 }
  - { offsetInCU: 0xF8C4, offset: 0xF8C4, size: 0x8, addend: 0x0, symName: __Z9pushToken5Token, symObjAddr: 0x1F4C, symBinAddr: 0x100006140, symSize: 0x268 }
  - { offsetInCU: 0xF951, offset: 0xF951, size: 0x8, addend: 0x0, symName: __ZNKSt3__15dequeI5TokenNS_9allocatorIS1_EEE5frontEv, symObjAddr: 0x2238, symBinAddr: 0x10000642C, symSize: 0x58 }
  - { offsetInCU: 0xF979, offset: 0xF979, size: 0x8, addend: 0x0, symName: __ZNKSt3__15dequeI5TokenNS_9allocatorIS1_EEE4sizeB7v160006Ev, symObjAddr: 0x22DC, symBinAddr: 0x1000064D0, symSize: 0x28 }
  - { offsetInCU: 0xF99F, offset: 0xF99F, size: 0x8, addend: 0x0, symName: __ZNKSt3__15dequeI5TokenNS_9allocatorIS1_EEEixEm, symObjAddr: 0x2304, symBinAddr: 0x1000064F8, symSize: 0x64 }
  - { offsetInCU: 0xF9E5, offset: 0xF9E5, size: 0x8, addend: 0x0, symName: __ZNKSt3__15dequeI5TokenNS_9allocatorIS1_EEE4backEv, symObjAddr: 0x2368, symBinAddr: 0x10000655C, symSize: 0x70 }
  - { offsetInCU: 0xFA1B, offset: 0xFA1B, size: 0x8, addend: 0x0, symName: __Z11splitStringRKNSt3__112basic_stringIcNS_11char_traitsIcEENS_9allocatorIcEEEEc, symObjAddr: 0x23D8, symBinAddr: 0x1000065CC, symSize: 0x16C }
  - { offsetInCU: 0xFABA, offset: 0xFABA, size: 0x8, addend: 0x0, symName: __ZNKSt3__112basic_stringIcNS_11char_traitsIcEENS_9allocatorIcEEE5beginB7v160006Ev, symObjAddr: 0x2544, symBinAddr: 0x100006738, symSize: 0x4C }
  - { offsetInCU: 0xFAE0, offset: 0xFAE0, size: 0x8, addend: 0x0, symName: __ZNKSt3__112basic_stringIcNS_11char_traitsIcEENS_9allocatorIcEEE3endB7v160006Ev, symObjAddr: 0x2590, symBinAddr: 0x100006784, symSize: 0x54 }
  - { offsetInCU: 0xFB06, offset: 0xFB06, size: 0x8, addend: 0x0, symName: __ZNKSt3__111__wrap_iterIPKcEdeB7v160006Ev, symObjAddr: 0x2618, symBinAddr: 0x10000680C, symSize: 0x18 }
  - { offsetInCU: 0xFB2C, offset: 0xFB2C, size: 0x8, addend: 0x0, symName: __ZNSt3__112basic_stringIcNS_11char_traitsIcEENS_9allocatorIcEEE5clearB7v160006Ev, symObjAddr: 0x2630, symBinAddr: 0x100006824, symSize: 0x88 }
  - { offsetInCU: 0xFB54, offset: 0xFB54, size: 0x8, addend: 0x0, symName: __ZNSt3__112basic_stringIcNS_11char_traitsIcEENS_9allocatorIcEEEpLB7v160006Ec, symObjAddr: 0x26B8, symBinAddr: 0x1000068AC, symSize: 0x34 }
  - { offsetInCU: 0xFB89, offset: 0xFB89, size: 0x8, addend: 0x0, symName: __ZNSt3__111__wrap_iterIPKcEppB7v160006Ev, symObjAddr: 0x26EC, symBinAddr: 0x1000068E0, symSize: 0x20 }
  - { offsetInCU: 0xFBAF, offset: 0xFBAF, size: 0x8, addend: 0x0, symName: __ZNKSt3__112basic_stringIcNS_11char_traitsIcEENS_9allocatorIcEEE5emptyB7v160006Ev, symObjAddr: 0x270C, symBinAddr: 0x100006900, symSize: 0x30 }
  - { offsetInCU: 0xFBD4, offset: 0xFBD4, size: 0x8, addend: 0x0, symName: __Z11printTokensRKNSt3__15dequeI5TokenNS_9allocatorIS1_EEEE, symObjAddr: 0x273C, symBinAddr: 0x100006930, symSize: 0xB8 }
  - { offsetInCU: 0xFC53, offset: 0xFC53, size: 0x8, addend: 0x0, symName: __ZNKSt3__15dequeI5TokenNS_9allocatorIS1_EEE5beginB7v160006Ev, symObjAddr: 0x27F4, symBinAddr: 0x1000069E8, symSize: 0xB0 }
  - { offsetInCU: 0xFC88, offset: 0xFC88, size: 0x8, addend: 0x0, symName: __ZNKSt3__15dequeI5TokenNS_9allocatorIS1_EEE3endB7v160006Ev, symObjAddr: 0x28A4, symBinAddr: 0x100006A98, symSize: 0xC4 }
  - { offsetInCU: 0xFCCC, offset: 0xFCCC, size: 0x8, addend: 0x0, symName: __ZNKSt3__116__deque_iteratorI5TokenPKS1_RS2_PKS3_lLl85EEdeB7v160006Ev, symObjAddr: 0x299C, symBinAddr: 0x100006B90, symSize: 0x18 }
  - { offsetInCU: 0xFCF2, offset: 0xFCF2, size: 0x8, addend: 0x0, symName: __ZNSt3__116__deque_iteratorI5TokenPKS1_RS2_PKS3_lLl85EEppB7v160006Ev, symObjAddr: 0x29B4, symBinAddr: 0x100006BA8, symSize: 0x70 }
  - { offsetInCU: 0xFD17, offset: 0xFD17, size: 0x8, addend: 0x0, symName: __Z9printLineRKNSt3__15dequeI5TokenNS_9allocatorIS1_EEEE, symObjAddr: 0x2A24, symBinAddr: 0x100006C18, symSize: 0xCC }
  - { offsetInCU: 0xFD95, offset: 0xFD95, size: 0x8, addend: 0x0, symName: __Z13checkBracketsNSt3__15dequeI5TokenNS_9allocatorIS1_EEEE, symObjAddr: 0x2AF0, symBinAddr: 0x100006CE4, symSize: 0x28C }
  - { offsetInCU: 0xFE7E, offset: 0xFE7E, size: 0x8, addend: 0x0, symName: __ZNSt3__15stackI5TokenNS_5dequeIS1_NS_9allocatorIS1_EEEEEC1B7v160006Ev, symObjAddr: 0x2D7C, symBinAddr: 0x100006F70, symSize: 0x2C }
  - { offsetInCU: 0xFEA8, offset: 0xFEA8, size: 0x8, addend: 0x0, symName: __ZNSt3__15stackI5TokenNS_5dequeIS1_NS_9allocatorIS1_EEEEE4pushB7v160006ERKS1_, symObjAddr: 0x2DA8, symBinAddr: 0x100006F9C, symSize: 0x2C }
  - { offsetInCU: 0xFEDC, offset: 0xFEDC, size: 0x8, addend: 0x0, symName: __ZNKSt3__15stackI5TokenNS_5dequeIS1_NS_9allocatorIS1_EEEEE5emptyB7v160006Ev, symObjAddr: 0x2DD4, symBinAddr: 0x100006FC8, symSize: 0x28 }
  - { offsetInCU: 0xFF02, offset: 0xFF02, size: 0x8, addend: 0x0, symName: __ZNSt3__15stackI5TokenNS_5dequeIS1_NS_9allocatorIS1_EEEEE3topB7v160006Ev, symObjAddr: 0x2DFC, symBinAddr: 0x100006FF0, symSize: 0x24 }
  - { offsetInCU: 0xFF28, offset: 0xFF28, size: 0x8, addend: 0x0, symName: __ZNSt3__15stackI5TokenNS_5dequeIS1_NS_9allocatorIS1_EEEEE3popB7v160006Ev, symObjAddr: 0x2E20, symBinAddr: 0x100007014, symSize: 0x24 }
  - { offsetInCU: 0xFF4E, offset: 0xFF4E, size: 0x8, addend: 0x0, symName: __ZNSt3__15stackI5TokenNS_5dequeIS1_NS_9allocatorIS1_EEEEED1Ev, symObjAddr: 0x2E44, symBinAddr: 0x100007038, symSize: 0x2C }
  - { offsetInCU: 0xFF79, offset: 0xFF79, size: 0x8, addend: 0x0, symName: __Z5yylexv, symObjAddr: 0x2E70, symBinAddr: 0x100007064, symSize: 0x145C }
  - { offsetInCU: 0x10059, offset: 0x10059, size: 0x8, addend: 0x0, symName: __ZL21yyensure_buffer_stackv, symObjAddr: 0x4330, symBinAddr: 0x100008524, symSize: 0x14C }
  - { offsetInCU: 0x100A1, offset: 0x100A1, size: 0x8, addend: 0x0, symName: __Z16yy_create_bufferP7__sFILEi, symObjAddr: 0x447C, symBinAddr: 0x100008670, symSize: 0xB8 }
  - { offsetInCU: 0x100EE, offset: 0x100EE, size: 0x8, addend: 0x0, symName: __ZL20yy_load_buffer_statev, symObjAddr: 0x4534, symBinAddr: 0x100008728, symSize: 0x6C }
  - { offsetInCU: 0x10109, offset: 0x10109, size: 0x8, addend: 0x0, symName: __ZNSt3__15dequeI5TokenNS_9allocatorIS1_EEE9push_backEOS1_, symObjAddr: 0x45A0, symBinAddr: 0x100008794, symSize: 0xA0 }
  - { offsetInCU: 0x1014F, offset: 0x1014F, size: 0x8, addend: 0x0, symName: __ZN5TokenC1ENSt3__112basic_stringIcNS0_11char_traitsIcEENS0_9allocatorIcEEEES6_, symObjAddr: 0x4640, symBinAddr: 0x100008834, symSize: 0x3C }
  - { offsetInCU: 0x10197, offset: 0x10197, size: 0x8, addend: 0x0, symName: __ZL21yy_get_previous_statev, symObjAddr: 0x467C, symBinAddr: 0x100008870, symSize: 0x198 }
  - { offsetInCU: 0x101F3, offset: 0x101F3, size: 0x8, addend: 0x0, symName: __ZL16yy_try_NUL_transi, symObjAddr: 0x4814, symBinAddr: 0x100008A08, symSize: 0x158 }
  - { offsetInCU: 0x1024F, offset: 0x1024F, size: 0x8, addend: 0x0, symName: __ZL18yy_get_next_bufferv, symObjAddr: 0x496C, symBinAddr: 0x100008B60, symSize: 0x7A4 }
  - { offsetInCU: 0x1036E, offset: 0x1036E, size: 0x8, addend: 0x0, symName: __ZL14yy_fatal_errorPKc, symObjAddr: 0x5110, symBinAddr: 0x100009304, symSize: 0x3C }
  - { offsetInCU: 0x10398, offset: 0x10398, size: 0x8, addend: 0x0, symName: __Z9yyrestartP7__sFILE, symObjAddr: 0x514C, symBinAddr: 0x100009340, symSize: 0xEC }
  - { offsetInCU: 0x103C3, offset: 0x103C3, size: 0x8, addend: 0x0, symName: __ZL14yy_init_bufferP15yy_buffer_stateP7__sFILE, symObjAddr: 0x5238, symBinAddr: 0x10000942C, symSize: 0x124 }
  - { offsetInCU: 0x1040B, offset: 0x1040B, size: 0x8, addend: 0x0, symName: __Z19yy_switch_to_bufferP15yy_buffer_state, symObjAddr: 0x535C, symBinAddr: 0x100009550, symSize: 0x148 }
  - { offsetInCU: 0x10435, offset: 0x10435, size: 0x8, addend: 0x0, symName: __Z7yyallocm, symObjAddr: 0x54A4, symBinAddr: 0x100009698, symSize: 0x24 }
  - { offsetInCU: 0x10463, offset: 0x10463, size: 0x8, addend: 0x0, symName: __Z16yy_delete_bufferP15yy_buffer_state, symObjAddr: 0x54C8, symBinAddr: 0x1000096BC, symSize: 0xE4 }
  - { offsetInCU: 0x1048D, offset: 0x1048D, size: 0x8, addend: 0x0, symName: __Z6yyfreePv, symObjAddr: 0x55AC, symBinAddr: 0x1000097A0, symSize: 0x24 }
  - { offsetInCU: 0x104B7, offset: 0x104B7, size: 0x8, addend: 0x0, symName: __Z15yy_flush_bufferP15yy_buffer_state, symObjAddr: 0x55D0, symBinAddr: 0x1000097C4, symSize: 0xE0 }
  - { offsetInCU: 0x104E1, offset: 0x104E1, size: 0x8, addend: 0x0, symName: __Z19yypush_buffer_stateP15yy_buffer_state, symObjAddr: 0x56B0, symBinAddr: 0x1000098A4, symSize: 0x16C }
  - { offsetInCU: 0x1050C, offset: 0x1050C, size: 0x8, addend: 0x0, symName: __Z18yypop_buffer_statev, symObjAddr: 0x581C, symBinAddr: 0x100009A10, symSize: 0x160 }
  - { offsetInCU: 0x10526, offset: 0x10526, size: 0x8, addend: 0x0, symName: __Z14yy_scan_bufferPcm, symObjAddr: 0x597C, symBinAddr: 0x100009B70, symSize: 0x128 }
  - { offsetInCU: 0x10572, offset: 0x10572, size: 0x8, addend: 0x0, symName: __Z14yy_scan_stringPKc, symObjAddr: 0x5AA4, symBinAddr: 0x100009C98, symSize: 0x3C }
  - { offsetInCU: 0x105A0, offset: 0x105A0, size: 0x8, addend: 0x0, symName: __Z13yy_scan_bytesPKcm, symObjAddr: 0x5AE0, symBinAddr: 0x100009CD4, symSize: 0x110 }
  - { offsetInCU: 0x1061A, offset: 0x1061A, size: 0x8, addend: 0x0, symName: __Z12yyget_linenov, symObjAddr: 0x5BF0, symBinAddr: 0x100009DE4, symSize: 0xC }
  - { offsetInCU: 0x10639, offset: 0x10639, size: 0x8, addend: 0x0, symName: __Z8yyget_inv, symObjAddr: 0x5BFC, symBinAddr: 0x100009DF0, symSize: 0xC }
  - { offsetInCU: 0x10658, offset: 0x10658, size: 0x8, addend: 0x0, symName: __Z9yyget_outv, symObjAddr: 0x5C08, symBinAddr: 0x100009DFC, symSize: 0xC }
  - { offsetInCU: 0x10677, offset: 0x10677, size: 0x8, addend: 0x0, symName: __Z10yyget_lengv, symObjAddr: 0x5C14, symBinAddr: 0x100009E08, symSize: 0xC }
  - { offsetInCU: 0x10696, offset: 0x10696, size: 0x8, addend: 0x0, symName: __Z10yyget_textv, symObjAddr: 0x5C20, symBinAddr: 0x100009E14, symSize: 0xC }
  - { offsetInCU: 0x106B5, offset: 0x106B5, size: 0x8, addend: 0x0, symName: __Z12yyset_linenoi, symObjAddr: 0x5C2C, symBinAddr: 0x100009E20, symSize: 0x1C }
  - { offsetInCU: 0x106E0, offset: 0x106E0, size: 0x8, addend: 0x0, symName: __Z8yyset_inP7__sFILE, symObjAddr: 0x5C48, symBinAddr: 0x100009E3C, symSize: 0x1C }
  - { offsetInCU: 0x1070B, offset: 0x1070B, size: 0x8, addend: 0x0, symName: __Z9yyset_outP7__sFILE, symObjAddr: 0x5C64, symBinAddr: 0x100009E58, symSize: 0x1C }
  - { offsetInCU: 0x10736, offset: 0x10736, size: 0x8, addend: 0x0, symName: __Z11yyget_debugv, symObjAddr: 0x5C80, symBinAddr: 0x100009E74, symSize: 0xC }
  - { offsetInCU: 0x10755, offset: 0x10755, size: 0x8, addend: 0x0, symName: __Z11yyset_debugi, symObjAddr: 0x5C8C, symBinAddr: 0x100009E80, symSize: 0x1C }
  - { offsetInCU: 0x10780, offset: 0x10780, size: 0x8, addend: 0x0, symName: __Z13yylex_destroyv, symObjAddr: 0x5CA8, symBinAddr: 0x100009E9C, symSize: 0xF8 }
  - { offsetInCU: 0x1079F, offset: 0x1079F, size: 0x8, addend: 0x0, symName: __ZL15yy_init_globalsv, symObjAddr: 0x5DA0, symBinAddr: 0x100009F94, symSize: 0x48 }
  - { offsetInCU: 0x107BD, offset: 0x107BD, size: 0x8, addend: 0x0, symName: __Z9yyreallocPvm, symObjAddr: 0x5DE8, symBinAddr: 0x100009FDC, symSize: 0x2C }
  - { offsetInCU: 0x107FB, offset: 0x107FB, size: 0x8, addend: 0x0, symName: _main, symObjAddr: 0x5E14, symBinAddr: 0x10000A008, symSize: 0x16C }
  - { offsetInCU: 0x1084F, offset: 0x1084F, size: 0x8, addend: 0x0, symName: __ZNKSt3__112basic_stringIcNS_11char_traitsIcEENS_9allocatorIcEEE5c_strB7v160006Ev, symObjAddr: 0x5F80, symBinAddr: 0x10000A174, symSize: 0x24 }
  - { offsetInCU: 0x10875, offset: 0x10875, size: 0x8, addend: 0x0, symName: __ZN5TokenC2ERKS_, symObjAddr: 0x5FA4, symBinAddr: 0x10000A198, symSize: 0x70 }
  - { offsetInCU: 0x108AA, offset: 0x108AA, size: 0x8, addend: 0x0, symName: __ZNKSt3__111__wrap_iterIPNS_12basic_stringIcNS_11char_traitsIcEENS_9allocatorIcEEEEE4baseB7v160006Ev, symObjAddr: 0x605C, symBinAddr: 0x10000A250, symSize: 0x18 }
  - { offsetInCU: 0x108D0, offset: 0x108D0, size: 0x8, addend: 0x0, symName: __ZN5TokenD2Ev, symObjAddr: 0x6074, symBinAddr: 0x10000A268, symSize: 0x38 }
  - { offsetInCU: 0x108FC, offset: 0x108FC, size: 0x8, addend: 0x0, symName: __ZNKSt3__111__wrap_iterIPKcE4baseB7v160006Ev, symObjAddr: 0x60F4, symBinAddr: 0x10000A2E8, symSize: 0x18 }
  - { offsetInCU: 0x10922, offset: 0x10922, size: 0x8, addend: 0x0, symName: __ZNSt3__15stackI5TokenNS_5dequeIS1_NS_9allocatorIS1_EEEEED2Ev, symObjAddr: 0x610C, symBinAddr: 0x10000A300, symSize: 0x2C }
  - { offsetInCU: 0x1094E, offset: 0x1094E, size: 0x8, addend: 0x0, symName: __ZN5TokenC2ENSt3__112basic_stringIcNS0_11char_traitsIcEENS0_9allocatorIcEEEES6_, symObjAddr: 0x6138, symBinAddr: 0x10000A32C, symSize: 0x4C }
  - { offsetInCU: 0x10996, offset: 0x10996, size: 0x8, addend: 0x0, symName: __ZNSt3__112basic_stringIcNS_11char_traitsIcEENS_9allocatorIcEEEC1B7v160006EOS5_, symObjAddr: 0x6184, symBinAddr: 0x10000A378, symSize: 0x34 }
  - { offsetInCU: 0x109CF, offset: 0x109CF, size: 0x8, addend: 0x0, symName: __ZNSt3__112basic_stringIcNS_11char_traitsIcEENS_9allocatorIcEEEC2B7v160006EOS5_, symObjAddr: 0x61B8, symBinAddr: 0x10000A3AC, symSize: 0x88 }
  - { offsetInCU: 0x10A08, offset: 0x10A08, size: 0x8, addend: 0x0, symName: __ZNSt3__112basic_stringIcNS_11char_traitsIcEENS_9allocatorIcEEE14__default_initB7v160006Ev, symObjAddr: 0x6240, symBinAddr: 0x10000A434, symSize: 0x40 }
  - { offsetInCU: 0x10A2E, offset: 0x10A2E, size: 0x8, addend: 0x0, symName: __ZNKSt3__112basic_stringIcNS_11char_traitsIcEENS_9allocatorIcEEE9__is_longB7v160006Ev, symObjAddr: 0x629C, symBinAddr: 0x10000A490, symSize: 0x38 }
  - { offsetInCU: 0x10A54, offset: 0x10A54, size: 0x8, addend: 0x0, symName: __ZNSt3__117__compressed_pairINS_12basic_stringIcNS_11char_traitsIcEENS_9allocatorIcEEE5__repES5_E5firstB7v160006Ev, symObjAddr: 0x62E8, symBinAddr: 0x10000A4DC, symSize: 0x24 }
  - { offsetInCU: 0x10A7A, offset: 0x10A7A, size: 0x8, addend: 0x0, symName: __ZNSt3__122__compressed_pair_elemINS_12basic_stringIcNS_11char_traitsIcEENS_9allocatorIcEEE5__repELi0ELb0EE5__getB7v160006Ev, symObjAddr: 0x630C, symBinAddr: 0x10000A500, symSize: 0x14 }
  - { offsetInCU: 0x10AA0, offset: 0x10AA0, size: 0x8, addend: 0x0, symName: __ZNKSt3__117__compressed_pairINS_12basic_stringIcNS_11char_traitsIcEENS_9allocatorIcEEE5__repES5_E5firstB7v160006Ev, symObjAddr: 0x6320, symBinAddr: 0x10000A514, symSize: 0x24 }
  - { offsetInCU: 0x10AC6, offset: 0x10AC6, size: 0x8, addend: 0x0, symName: __ZNKSt3__122__compressed_pair_elemINS_12basic_stringIcNS_11char_traitsIcEENS_9allocatorIcEEE5__repELi0ELb0EE5__getB7v160006Ev, symObjAddr: 0x6344, symBinAddr: 0x10000A538, symSize: 0x14 }
  - { offsetInCU: 0x10AEC, offset: 0x10AEC, size: 0x8, addend: 0x0, symName: __ZNSt3__112basic_stringIcNS_11char_traitsIcEENS_9allocatorIcEEEC2B7v160006Ev, symObjAddr: 0x6358, symBinAddr: 0x10000A54C, symSize: 0x4C }
  - { offsetInCU: 0x10B1B, offset: 0x10B1B, size: 0x8, addend: 0x0, symName: __ZNSt3__117__compressed_pairINS_12basic_stringIcNS_11char_traitsIcEENS_9allocatorIcEEE5__repES5_EC1B7v160006INS_18__default_init_tagESA_EEOT_OT0_, symObjAddr: 0x63A4, symBinAddr: 0x10000A598, symSize: 0x3C }
  - { offsetInCU: 0x10B73, offset: 0x10B73, size: 0x8, addend: 0x0, symName: __ZNSt3__117__compressed_pairINS_12basic_stringIcNS_11char_traitsIcEENS_9allocatorIcEEE5__repES5_EC2B7v160006INS_18__default_init_tagESA_EEOT_OT0_, symObjAddr: 0x63E0, symBinAddr: 0x10000A5D4, symSize: 0x3C }
  - { offsetInCU: 0x10BCB, offset: 0x10BCB, size: 0x8, addend: 0x0, symName: __ZNSt3__122__compressed_pair_elemINS_12basic_stringIcNS_11char_traitsIcEENS_9allocatorIcEEE5__repELi0ELb0EEC2B7v160006ENS_18__default_init_tagE, symObjAddr: 0x641C, symBinAddr: 0x10000A610, symSize: 0x14 }
  - { offsetInCU: 0x10BFF, offset: 0x10BFF, size: 0x8, addend: 0x0, symName: __ZNSt3__122__compressed_pair_elemINS_9allocatorIcEELi1ELb1EEC2B7v160006ENS_18__default_init_tagE, symObjAddr: 0x6430, symBinAddr: 0x10000A624, symSize: 0x2C }
  - { offsetInCU: 0x10C33, offset: 0x10C33, size: 0x8, addend: 0x0, symName: __ZNSt3__19allocatorIcEC2B7v160006Ev, symObjAddr: 0x645C, symBinAddr: 0x10000A650, symSize: 0x2C }
  - { offsetInCU: 0x10C5D, offset: 0x10C5D, size: 0x8, addend: 0x0, symName: __ZNSt3__116__non_trivial_ifILb1ENS_9allocatorIcEEEC2B7v160006Ev, symObjAddr: 0x6488, symBinAddr: 0x10000A67C, symSize: 0x14 }
  - { offsetInCU: 0x10C87, offset: 0x10C87, size: 0x8, addend: 0x0, symName: __ZNSt3__112basic_stringIcNS_11char_traitsIcEENS_9allocatorIcEEE6appendB7v160006ERKS5_, symObjAddr: 0x649C, symBinAddr: 0x10000A690, symSize: 0x4C }
  - { offsetInCU: 0x10CBC, offset: 0x10CBC, size: 0x8, addend: 0x0, symName: __ZNKSt3__112basic_stringIcNS_11char_traitsIcEENS_9allocatorIcEEE4dataB7v160006Ev, symObjAddr: 0x64E8, symBinAddr: 0x10000A6DC, symSize: 0x28 }
  - { offsetInCU: 0x10CE2, offset: 0x10CE2, size: 0x8, addend: 0x0, symName: __ZNKSt3__112basic_stringIcNS_11char_traitsIcEENS_9allocatorIcEEE4sizeB7v160006Ev, symObjAddr: 0x6510, symBinAddr: 0x10000A704, symSize: 0x54 }
  - { offsetInCU: 0x10D08, offset: 0x10D08, size: 0x8, addend: 0x0, symName: __ZNKSt3__112basic_stringIcNS_11char_traitsIcEENS_9allocatorIcEEE13__get_pointerB7v160006Ev, symObjAddr: 0x6578, symBinAddr: 0x10000A76C, symSize: 0x54 }
  - { offsetInCU: 0x10D2E, offset: 0x10D2E, size: 0x8, addend: 0x0, symName: __ZNKSt3__112basic_stringIcNS_11char_traitsIcEENS_9allocatorIcEEE18__get_long_pointerB7v160006Ev, symObjAddr: 0x65CC, symBinAddr: 0x10000A7C0, symSize: 0x28 }
  - { offsetInCU: 0x10D54, offset: 0x10D54, size: 0x8, addend: 0x0, symName: __ZNKSt3__112basic_stringIcNS_11char_traitsIcEENS_9allocatorIcEEE19__get_short_pointerB7v160006Ev, symObjAddr: 0x65F4, symBinAddr: 0x10000A7E8, symSize: 0x28 }
  - { offsetInCU: 0x10D7A, offset: 0x10D7A, size: 0x8, addend: 0x0, symName: __ZNSt3__114pointer_traitsIPKcE10pointer_toB7v160006ERS1_, symObjAddr: 0x661C, symBinAddr: 0x10000A810, symSize: 0x14 }
  - { offsetInCU: 0x10D9D, offset: 0x10D9D, size: 0x8, addend: 0x0, symName: __ZNKSt3__112basic_stringIcNS_11char_traitsIcEENS_9allocatorIcEEE15__get_long_sizeB7v160006Ev, symObjAddr: 0x6630, symBinAddr: 0x10000A824, symSize: 0x28 }
  - { offsetInCU: 0x10DC3, offset: 0x10DC3, size: 0x8, addend: 0x0, symName: __ZNKSt3__112basic_stringIcNS_11char_traitsIcEENS_9allocatorIcEEE16__get_short_sizeB7v160006Ev, symObjAddr: 0x6658, symBinAddr: 0x10000A84C, symSize: 0x34 }
  - { offsetInCU: 0x10DE9, offset: 0x10DE9, size: 0x8, addend: 0x0, symName: __ZNSt3__111char_traitsIcE6assignERcRKc, symObjAddr: 0x669C, symBinAddr: 0x10000A890, symSize: 0x24 }
  - { offsetInCU: 0x10E1A, offset: 0x10E1A, size: 0x8, addend: 0x0, symName: __ZNSt3__112basic_stringIcNS_11char_traitsIcEENS_9allocatorIcEEE18__get_long_pointerB7v160006Ev, symObjAddr: 0x66C0, symBinAddr: 0x10000A8B4, symSize: 0x28 }
  - { offsetInCU: 0x10E40, offset: 0x10E40, size: 0x8, addend: 0x0, symName: __ZNSt3__112basic_stringIcNS_11char_traitsIcEENS_9allocatorIcEEE15__set_long_sizeB7v160006Em, symObjAddr: 0x66E8, symBinAddr: 0x10000A8DC, symSize: 0x38 }
  - { offsetInCU: 0x10E75, offset: 0x10E75, size: 0x8, addend: 0x0, symName: __ZNSt3__112basic_stringIcNS_11char_traitsIcEENS_9allocatorIcEEE19__get_short_pointerB7v160006Ev, symObjAddr: 0x6720, symBinAddr: 0x10000A914, symSize: 0x28 }
  - { offsetInCU: 0x10E9B, offset: 0x10E9B, size: 0x8, addend: 0x0, symName: __ZNSt3__112basic_stringIcNS_11char_traitsIcEENS_9allocatorIcEEE16__set_short_sizeB7v160006Em, symObjAddr: 0x6748, symBinAddr: 0x10000A93C, symSize: 0x78 }
  - { offsetInCU: 0x10ED0, offset: 0x10ED0, size: 0x8, addend: 0x0, symName: __ZNSt3__114pointer_traitsIPcE10pointer_toB7v160006ERc, symObjAddr: 0x67C0, symBinAddr: 0x10000A9B4, symSize: 0x14 }
  - { offsetInCU: 0x10EF3, offset: 0x10EF3, size: 0x8, addend: 0x0, symName: __ZNSt3__16vectorINS_12basic_stringIcNS_11char_traitsIcEENS_9allocatorIcEEEENS4_IS6_EEEC2B7v160006Ev, symObjAddr: 0x67D4, symBinAddr: 0x10000A9C8, symSize: 0x58 }
  - { offsetInCU: 0x10F22, offset: 0x10F22, size: 0x8, addend: 0x0, symName: __ZNSt3__117__compressed_pairIPNS_12basic_stringIcNS_11char_traitsIcEENS_9allocatorIcEEEENS4_IS6_EEEC1B7v160006IDnNS_18__default_init_tagEEEOT_OT0_, symObjAddr: 0x682C, symBinAddr: 0x10000AA20, symSize: 0x3C }
  - { offsetInCU: 0x10F7A, offset: 0x10F7A, size: 0x8, addend: 0x0, symName: __ZNSt3__117__compressed_pairIPNS_12basic_stringIcNS_11char_traitsIcEENS_9allocatorIcEEEENS4_IS6_EEEC2B7v160006IDnNS_18__default_init_tagEEEOT_OT0_, symObjAddr: 0x6878, symBinAddr: 0x10000AA6C, symSize: 0x40 }
  - { offsetInCU: 0x10FD2, offset: 0x10FD2, size: 0x8, addend: 0x0, symName: __ZNSt3__122__compressed_pair_elemIPNS_12basic_stringIcNS_11char_traitsIcEENS_9allocatorIcEEEELi0ELb0EEC2B7v160006IDnvEEOT_, symObjAddr: 0x68B8, symBinAddr: 0x10000AAAC, symSize: 0x1C }
  - { offsetInCU: 0x11014, offset: 0x11014, size: 0x8, addend: 0x0, symName: __ZNSt3__122__compressed_pair_elemINS_9allocatorINS_12basic_stringIcNS_11char_traitsIcEENS1_IcEEEEEELi1ELb1EEC2B7v160006ENS_18__default_init_tagE, symObjAddr: 0x68D4, symBinAddr: 0x10000AAC8, symSize: 0x2C }
  - { offsetInCU: 0x11048, offset: 0x11048, size: 0x8, addend: 0x0, symName: __ZNSt3__19allocatorINS_12basic_stringIcNS_11char_traitsIcEENS0_IcEEEEEC2B7v160006Ev, symObjAddr: 0x6900, symBinAddr: 0x10000AAF4, symSize: 0x2C }
  - { offsetInCU: 0x11072, offset: 0x11072, size: 0x8, addend: 0x0, symName: __ZNSt3__116__non_trivial_ifILb1ENS_9allocatorINS_12basic_stringIcNS_11char_traitsIcEENS1_IcEEEEEEEC2B7v160006Ev, symObjAddr: 0x692C, symBinAddr: 0x10000AB20, symSize: 0x14 }
  - { offsetInCU: 0x1109C, offset: 0x1109C, size: 0x8, addend: 0x0, symName: __ZNSt3__16vectorINS_12basic_stringIcNS_11char_traitsIcEENS_9allocatorIcEEEENS4_IS6_EEED2B7v160006Ev, symObjAddr: 0x6940, symBinAddr: 0x10000AB34, symSize: 0x44 }
  - { offsetInCU: 0x110C6, offset: 0x110C6, size: 0x8, addend: 0x0, symName: __ZNSt3__16vectorINS_12basic_stringIcNS_11char_traitsIcEENS_9allocatorIcEEEENS4_IS6_EEE16__destroy_vectorC1ERS8_, symObjAddr: 0x6984, symBinAddr: 0x10000AB78, symSize: 0x34 }
  - { offsetInCU: 0x110FF, offset: 0x110FF, size: 0x8, addend: 0x0, symName: __ZNSt3__16vectorINS_12basic_stringIcNS_11char_traitsIcEENS_9allocatorIcEEEENS4_IS6_EEE16__destroy_vectorclB7v160006Ev, symObjAddr: 0x69B8, symBinAddr: 0x10000ABAC, symSize: 0x9C }
  - { offsetInCU: 0x11125, offset: 0x11125, size: 0x8, addend: 0x0, symName: __ZNSt3__16vectorINS_12basic_stringIcNS_11char_traitsIcEENS_9allocatorIcEEEENS4_IS6_EEE16__destroy_vectorC2ERS8_, symObjAddr: 0x6A54, symBinAddr: 0x10000AC48, symSize: 0x20 }
  - { offsetInCU: 0x1115E, offset: 0x1115E, size: 0x8, addend: 0x0, symName: __ZNKSt3__16vectorINS_12basic_stringIcNS_11char_traitsIcEENS_9allocatorIcEEEENS4_IS6_EEE17__annotate_deleteB7v160006Ev, symObjAddr: 0x6A74, symBinAddr: 0x10000AC68, symSize: 0xD4 }
  - { offsetInCU: 0x11184, offset: 0x11184, size: 0x8, addend: 0x0, symName: __ZNSt3__16vectorINS_12basic_stringIcNS_11char_traitsIcEENS_9allocatorIcEEEENS4_IS6_EEE7__clearB7v160006Ev, symObjAddr: 0x6B58, symBinAddr: 0x10000AD4C, symSize: 0x28 }
  - { offsetInCU: 0x111AA, offset: 0x111AA, size: 0x8, addend: 0x0, symName: __ZNSt3__116allocator_traitsINS_9allocatorINS_12basic_stringIcNS_11char_traitsIcEENS1_IcEEEEEEE10deallocateB7v160006ERS7_PS6_m, symObjAddr: 0x6B80, symBinAddr: 0x10000AD74, symSize: 0x34 }
  - { offsetInCU: 0x111EC, offset: 0x111EC, size: 0x8, addend: 0x0, symName: __ZNSt3__16vectorINS_12basic_stringIcNS_11char_traitsIcEENS_9allocatorIcEEEENS4_IS6_EEE7__allocB7v160006Ev, symObjAddr: 0x6BB4, symBinAddr: 0x10000ADA8, symSize: 0x28 }
  - { offsetInCU: 0x11212, offset: 0x11212, size: 0x8, addend: 0x0, symName: __ZNKSt3__16vectorINS_12basic_stringIcNS_11char_traitsIcEENS_9allocatorIcEEEENS4_IS6_EEE8capacityB7v160006Ev, symObjAddr: 0x6BDC, symBinAddr: 0x10000ADD0, symSize: 0x40 }
  - { offsetInCU: 0x11238, offset: 0x11238, size: 0x8, addend: 0x0, symName: __ZNKSt3__16vectorINS_12basic_stringIcNS_11char_traitsIcEENS_9allocatorIcEEEENS4_IS6_EEE31__annotate_contiguous_containerB7v160006EPKvSA_SA_SA_, symObjAddr: 0x6C1C, symBinAddr: 0x10000AE10, symSize: 0x20 }
  - { offsetInCU: 0x1128E, offset: 0x1128E, size: 0x8, addend: 0x0, symName: __ZNKSt3__16vectorINS_12basic_stringIcNS_11char_traitsIcEENS_9allocatorIcEEEENS4_IS6_EEE4dataB7v160006Ev, symObjAddr: 0x6C3C, symBinAddr: 0x10000AE30, symSize: 0x28 }
  - { offsetInCU: 0x112B4, offset: 0x112B4, size: 0x8, addend: 0x0, symName: __ZNKSt3__16vectorINS_12basic_stringIcNS_11char_traitsIcEENS_9allocatorIcEEEENS4_IS6_EEE4sizeB7v160006Ev, symObjAddr: 0x6C64, symBinAddr: 0x10000AE58, symSize: 0x28 }
  - { offsetInCU: 0x112DA, offset: 0x112DA, size: 0x8, addend: 0x0, symName: __ZNSt3__16vectorINS_12basic_stringIcNS_11char_traitsIcEENS_9allocatorIcEEEENS4_IS6_EEE22__base_destruct_at_endB7v160006EPS6_, symObjAddr: 0x6CA0, symBinAddr: 0x10000AE94, symSize: 0x8C }
  - { offsetInCU: 0x1131E, offset: 0x1131E, size: 0x8, addend: 0x0, symName: __ZNSt3__116allocator_traitsINS_9allocatorINS_12basic_stringIcNS_11char_traitsIcEENS1_IcEEEEEEE7destroyB7v160006IS6_vEEvRS7_PT_, symObjAddr: 0x6D2C, symBinAddr: 0x10000AF20, symSize: 0x2C }
  - { offsetInCU: 0x1135B, offset: 0x1135B, size: 0x8, addend: 0x0, symName: __ZNSt3__19allocatorINS_12basic_stringIcNS_11char_traitsIcEENS0_IcEEEEE7destroyB7v160006EPS5_, symObjAddr: 0x6D58, symBinAddr: 0x10000AF4C, symSize: 0x28 }
  - { offsetInCU: 0x1138F, offset: 0x1138F, size: 0x8, addend: 0x0, symName: __ZNSt3__19allocatorINS_12basic_stringIcNS_11char_traitsIcEENS0_IcEEEEE10deallocateB7v160006EPS5_m, symObjAddr: 0x6D80, symBinAddr: 0x10000AF74, symSize: 0x44 }
  - { offsetInCU: 0x113D1, offset: 0x113D1, size: 0x8, addend: 0x0, symName: __ZNSt3__117__compressed_pairIPNS_12basic_stringIcNS_11char_traitsIcEENS_9allocatorIcEEEENS4_IS6_EEE6secondB7v160006Ev, symObjAddr: 0x6E40, symBinAddr: 0x10000B034, symSize: 0x24 }
  - { offsetInCU: 0x113F7, offset: 0x113F7, size: 0x8, addend: 0x0, symName: __ZNSt3__122__compressed_pair_elemINS_9allocatorINS_12basic_stringIcNS_11char_traitsIcEENS1_IcEEEEEELi1ELb1EE5__getB7v160006Ev, symObjAddr: 0x6E64, symBinAddr: 0x10000B058, symSize: 0x14 }
  - { offsetInCU: 0x1141D, offset: 0x1141D, size: 0x8, addend: 0x0, symName: __ZNKSt3__16vectorINS_12basic_stringIcNS_11char_traitsIcEENS_9allocatorIcEEEENS4_IS6_EEE9__end_capB7v160006Ev, symObjAddr: 0x6E78, symBinAddr: 0x10000B06C, symSize: 0x28 }
  - { offsetInCU: 0x11443, offset: 0x11443, size: 0x8, addend: 0x0, symName: __ZNKSt3__117__compressed_pairIPNS_12basic_stringIcNS_11char_traitsIcEENS_9allocatorIcEEEENS4_IS6_EEE5firstB7v160006Ev, symObjAddr: 0x6EA0, symBinAddr: 0x10000B094, symSize: 0x24 }
  - { offsetInCU: 0x11469, offset: 0x11469, size: 0x8, addend: 0x0, symName: __ZNKSt3__122__compressed_pair_elemIPNS_12basic_stringIcNS_11char_traitsIcEENS_9allocatorIcEEEELi0ELb0EE5__getB7v160006Ev, symObjAddr: 0x6EC4, symBinAddr: 0x10000B0B8, symSize: 0x14 }
  - { offsetInCU: 0x1148F, offset: 0x1148F, size: 0x8, addend: 0x0, symName: __ZNSt3__15dequeI5TokenNS_9allocatorIS1_EEEC2B7v160006Ev, symObjAddr: 0x6ED8, symBinAddr: 0x10000B0CC, symSize: 0x50 }
  - { offsetInCU: 0x114B9, offset: 0x114B9, size: 0x8, addend: 0x0, symName: __ZNSt3__114__split_bufferIP5TokenNS_9allocatorIS2_EEEC1Ev, symObjAddr: 0x6F28, symBinAddr: 0x10000B11C, symSize: 0x2C }
  - { offsetInCU: 0x114EA, offset: 0x114EA, size: 0x8, addend: 0x0, symName: __ZNSt3__117__compressed_pairImNS_9allocatorI5TokenEEEC1B7v160006IiNS_18__default_init_tagEEEOT_OT0_, symObjAddr: 0x6F54, symBinAddr: 0x10000B148, symSize: 0x3C }
  - { offsetInCU: 0x11542, offset: 0x11542, size: 0x8, addend: 0x0, symName: __ZNSt3__114__split_bufferIP5TokenNS_9allocatorIS2_EEEC2Ev, symObjAddr: 0x6F90, symBinAddr: 0x10000B184, symSize: 0x50 }
  - { offsetInCU: 0x1156E, offset: 0x1156E, size: 0x8, addend: 0x0, symName: __ZNSt3__117__compressed_pairIPP5TokenNS_9allocatorIS2_EEEC1B7v160006IDnNS_18__default_init_tagEEEOT_OT0_, symObjAddr: 0x6FE0, symBinAddr: 0x10000B1D4, symSize: 0x3C }
  - { offsetInCU: 0x115C6, offset: 0x115C6, size: 0x8, addend: 0x0, symName: __ZNSt3__117__compressed_pairIPP5TokenNS_9allocatorIS2_EEEC2B7v160006IDnNS_18__default_init_tagEEEOT_OT0_, symObjAddr: 0x701C, symBinAddr: 0x10000B210, symSize: 0x40 }
  - { offsetInCU: 0x1161E, offset: 0x1161E, size: 0x8, addend: 0x0, symName: __ZNSt3__122__compressed_pair_elemIPP5TokenLi0ELb0EEC2B7v160006IDnvEEOT_, symObjAddr: 0x705C, symBinAddr: 0x10000B250, symSize: 0x1C }
  - { offsetInCU: 0x11660, offset: 0x11660, size: 0x8, addend: 0x0, symName: __ZNSt3__122__compressed_pair_elemINS_9allocatorIP5TokenEELi1ELb1EEC2B7v160006ENS_18__default_init_tagE, symObjAddr: 0x7078, symBinAddr: 0x10000B26C, symSize: 0x2C }
  - { offsetInCU: 0x11694, offset: 0x11694, size: 0x8, addend: 0x0, symName: __ZNSt3__19allocatorIP5TokenEC2B7v160006Ev, symObjAddr: 0x70A4, symBinAddr: 0x10000B298, symSize: 0x2C }
  - { offsetInCU: 0x116BE, offset: 0x116BE, size: 0x8, addend: 0x0, symName: __ZNSt3__116__non_trivial_ifILb1ENS_9allocatorIP5TokenEEEC2B7v160006Ev, symObjAddr: 0x70D0, symBinAddr: 0x10000B2C4, symSize: 0x14 }
  - { offsetInCU: 0x116E8, offset: 0x116E8, size: 0x8, addend: 0x0, symName: __ZNSt3__117__compressed_pairImNS_9allocatorI5TokenEEEC2B7v160006IiNS_18__default_init_tagEEEOT_OT0_, symObjAddr: 0x70E4, symBinAddr: 0x10000B2D8, symSize: 0x40 }
  - { offsetInCU: 0x11740, offset: 0x11740, size: 0x8, addend: 0x0, symName: __ZNSt3__122__compressed_pair_elemImLi0ELb0EEC2B7v160006IivEEOT_, symObjAddr: 0x7124, symBinAddr: 0x10000B318, symSize: 0x24 }
  - { offsetInCU: 0x11782, offset: 0x11782, size: 0x8, addend: 0x0, symName: __ZNSt3__122__compressed_pair_elemINS_9allocatorI5TokenEELi1ELb1EEC2B7v160006ENS_18__default_init_tagE, symObjAddr: 0x7148, symBinAddr: 0x10000B33C, symSize: 0x2C }
  - { offsetInCU: 0x117B6, offset: 0x117B6, size: 0x8, addend: 0x0, symName: __ZNSt3__19allocatorI5TokenEC2B7v160006Ev, symObjAddr: 0x7174, symBinAddr: 0x10000B368, symSize: 0x2C }
  - { offsetInCU: 0x117E0, offset: 0x117E0, size: 0x8, addend: 0x0, symName: __ZNSt3__116__non_trivial_ifILb1ENS_9allocatorI5TokenEEEC2B7v160006Ev, symObjAddr: 0x71A0, symBinAddr: 0x10000B394, symSize: 0x14 }
  - { offsetInCU: 0x1180A, offset: 0x1180A, size: 0x8, addend: 0x0, symName: __ZNSt3__15dequeI5TokenNS_9allocatorIS1_EEED2B7v160006Ev, symObjAddr: 0x71B4, symBinAddr: 0x10000B3A8, symSize: 0x9C }
  - { offsetInCU: 0x11861, offset: 0x11861, size: 0x8, addend: 0x0, symName: __ZNSt3__15dequeI5TokenNS_9allocatorIS1_EEE5clearEv, symObjAddr: 0x7250, symBinAddr: 0x10000B444, symSize: 0x180 }
  - { offsetInCU: 0x118BC, offset: 0x118BC, size: 0x8, addend: 0x0, symName: __ZNSt3__114__split_bufferIP5TokenNS_9allocatorIS2_EEE5beginB7v160006Ev, symObjAddr: 0x73D0, symBinAddr: 0x10000B5C4, symSize: 0x18 }
  - { offsetInCU: 0x118E2, offset: 0x118E2, size: 0x8, addend: 0x0, symName: __ZNSt3__114__split_bufferIP5TokenNS_9allocatorIS2_EEE3endB7v160006Ev, symObjAddr: 0x73E8, symBinAddr: 0x10000B5DC, symSize: 0x18 }
  - { offsetInCU: 0x11908, offset: 0x11908, size: 0x8, addend: 0x0, symName: __ZNSt3__116allocator_traitsINS_9allocatorI5TokenEEE10deallocateB7v160006ERS3_PS2_m, symObjAddr: 0x7400, symBinAddr: 0x10000B5F4, symSize: 0x34 }
  - { offsetInCU: 0x1194A, offset: 0x1194A, size: 0x8, addend: 0x0, symName: __ZNSt3__15dequeI5TokenNS_9allocatorIS1_EEE7__allocB7v160006Ev, symObjAddr: 0x7434, symBinAddr: 0x10000B628, symSize: 0x28 }
  - { offsetInCU: 0x11970, offset: 0x11970, size: 0x8, addend: 0x0, symName: __ZNSt3__114__split_bufferIP5TokenNS_9allocatorIS2_EEED1Ev, symObjAddr: 0x745C, symBinAddr: 0x10000B650, symSize: 0x2C }
  - { offsetInCU: 0x1199C, offset: 0x1199C, size: 0x8, addend: 0x0, symName: __ZNSt3__15dequeI5TokenNS_9allocatorIS1_EEE5beginB7v160006Ev, symObjAddr: 0x7488, symBinAddr: 0x10000B67C, symSize: 0xC0 }
  - { offsetInCU: 0x119D1, offset: 0x119D1, size: 0x8, addend: 0x0, symName: __ZNSt3__15dequeI5TokenNS_9allocatorIS1_EEE3endB7v160006Ev, symObjAddr: 0x7548, symBinAddr: 0x10000B73C, symSize: 0xC4 }
  - { offsetInCU: 0x11A15, offset: 0x11A15, size: 0x8, addend: 0x0, symName: __ZNSt3__116allocator_traitsINS_9allocatorI5TokenEEE7destroyB7v160006IS2_vEEvRS3_PT_, symObjAddr: 0x7640, symBinAddr: 0x10000B834, symSize: 0x2C }
  - { offsetInCU: 0x11A52, offset: 0x11A52, size: 0x8, addend: 0x0, symName: __ZNKSt3__116__deque_iteratorI5TokenPS1_RS1_PS2_lLl85EEdeB7v160006Ev, symObjAddr: 0x766C, symBinAddr: 0x10000B860, symSize: 0x18 }
  - { offsetInCU: 0x11A78, offset: 0x11A78, size: 0x8, addend: 0x0, symName: __ZNSt3__116__deque_iteratorI5TokenPS1_RS1_PS2_lLl85EEppB7v160006Ev, symObjAddr: 0x7684, symBinAddr: 0x10000B878, symSize: 0x70 }
  - { offsetInCU: 0x11A9E, offset: 0x11A9E, size: 0x8, addend: 0x0, symName: __ZNSt3__15dequeI5TokenNS_9allocatorIS1_EEE6__sizeB7v160006Ev, symObjAddr: 0x76F4, symBinAddr: 0x10000B8E8, symSize: 0x28 }
  - { offsetInCU: 0x11AC4, offset: 0x11AC4, size: 0x8, addend: 0x0, symName: __ZNKSt3__114__split_bufferIP5TokenNS_9allocatorIS2_EEE4sizeB7v160006Ev, symObjAddr: 0x771C, symBinAddr: 0x10000B910, symSize: 0x28 }
  - { offsetInCU: 0x11AEA, offset: 0x11AEA, size: 0x8, addend: 0x0, symName: __ZNSt3__114__split_bufferIP5TokenNS_9allocatorIS2_EEE5frontB7v160006Ev, symObjAddr: 0x7744, symBinAddr: 0x10000B938, symSize: 0x18 }
  - { offsetInCU: 0x11B10, offset: 0x11B10, size: 0x8, addend: 0x0, symName: __ZNSt3__114__split_bufferIP5TokenNS_9allocatorIS2_EEE9pop_frontB7v160006Ev, symObjAddr: 0x775C, symBinAddr: 0x10000B950, symSize: 0x2C }
  - { offsetInCU: 0x11B36, offset: 0x11B36, size: 0x8, addend: 0x0, symName: __ZNKSt3__114__split_bufferIP5TokenNS_9allocatorIS2_EEE5emptyB7v160006Ev, symObjAddr: 0x7788, symBinAddr: 0x10000B97C, symSize: 0x28 }
  - { offsetInCU: 0x11B5C, offset: 0x11B5C, size: 0x8, addend: 0x0, symName: __ZNSt3__116__deque_iteratorI5TokenPS1_RS1_PS2_lLl85EEC1B7v160006ES4_S2_, symObjAddr: 0x77B0, symBinAddr: 0x10000B9A4, symSize: 0x3C }
  - { offsetInCU: 0x11BA4, offset: 0x11BA4, size: 0x8, addend: 0x0, symName: __ZNSt3__116__deque_iteratorI5TokenPS1_RS1_PS2_lLl85EEC2B7v160006ES4_S2_, symObjAddr: 0x77EC, symBinAddr: 0x10000B9E0, symSize: 0x2C }
  - { offsetInCU: 0x11BEC, offset: 0x11BEC, size: 0x8, addend: 0x0, symName: __ZNSt3__19allocatorI5TokenE7destroyB7v160006EPS1_, symObjAddr: 0x7848, symBinAddr: 0x10000BA3C, symSize: 0x28 }
  - { offsetInCU: 0x11C20, offset: 0x11C20, size: 0x8, addend: 0x0, symName: __ZNSt3__117__compressed_pairImNS_9allocatorI5TokenEEE5firstB7v160006Ev, symObjAddr: 0x7870, symBinAddr: 0x10000BA64, symSize: 0x24 }
  - { offsetInCU: 0x11C46, offset: 0x11C46, size: 0x8, addend: 0x0, symName: __ZNSt3__122__compressed_pair_elemImLi0ELb0EE5__getB7v160006Ev, symObjAddr: 0x7894, symBinAddr: 0x10000BA88, symSize: 0x14 }
  - { offsetInCU: 0x11C6C, offset: 0x11C6C, size: 0x8, addend: 0x0, symName: __ZNSt3__114__split_bufferIP5TokenNS_9allocatorIS2_EEE19__destruct_at_beginB7v160006EPS2_, symObjAddr: 0x78A8, symBinAddr: 0x10000BA9C, symSize: 0x2C }
  - { offsetInCU: 0x11CA0, offset: 0x11CA0, size: 0x8, addend: 0x0, symName: __ZNSt3__114__split_bufferIP5TokenNS_9allocatorIS2_EEE19__destruct_at_beginEPS2_NS_17integral_constantIbLb1EEE, symObjAddr: 0x78D4, symBinAddr: 0x10000BAC8, symSize: 0x20 }
  - { offsetInCU: 0x11CE0, offset: 0x11CE0, size: 0x8, addend: 0x0, symName: __ZNSt3__19allocatorI5TokenE10deallocateB7v160006EPS1_m, symObjAddr: 0x78F4, symBinAddr: 0x10000BAE8, symSize: 0x44 }
  - { offsetInCU: 0x11D22, offset: 0x11D22, size: 0x8, addend: 0x0, symName: __ZNSt3__117__compressed_pairImNS_9allocatorI5TokenEEE6secondB7v160006Ev, symObjAddr: 0x7938, symBinAddr: 0x10000BB2C, symSize: 0x24 }
  - { offsetInCU: 0x11D48, offset: 0x11D48, size: 0x8, addend: 0x0, symName: __ZNSt3__122__compressed_pair_elemINS_9allocatorI5TokenEELi1ELb1EE5__getB7v160006Ev, symObjAddr: 0x795C, symBinAddr: 0x10000BB50, symSize: 0x14 }
  - { offsetInCU: 0x11D6E, offset: 0x11D6E, size: 0x8, addend: 0x0, symName: __ZNSt3__114__split_bufferIP5TokenNS_9allocatorIS2_EEED2Ev, symObjAddr: 0x7970, symBinAddr: 0x10000BB64, symSize: 0x8C }
  - { offsetInCU: 0x11D9A, offset: 0x11D9A, size: 0x8, addend: 0x0, symName: __ZNSt3__114__split_bufferIP5TokenNS_9allocatorIS2_EEE5clearB7v160006Ev, symObjAddr: 0x79FC, symBinAddr: 0x10000BBF0, symSize: 0x28 }
  - { offsetInCU: 0x11DC0, offset: 0x11DC0, size: 0x8, addend: 0x0, symName: __ZNSt3__116allocator_traitsINS_9allocatorIP5TokenEEE10deallocateB7v160006ERS4_PS3_m, symObjAddr: 0x7A24, symBinAddr: 0x10000BC18, symSize: 0x34 }
  - { offsetInCU: 0x11E02, offset: 0x11E02, size: 0x8, addend: 0x0, symName: __ZNSt3__114__split_bufferIP5TokenNS_9allocatorIS2_EEE7__allocB7v160006Ev, symObjAddr: 0x7A58, symBinAddr: 0x10000BC4C, symSize: 0x28 }
  - { offsetInCU: 0x11E28, offset: 0x11E28, size: 0x8, addend: 0x0, symName: __ZNKSt3__114__split_bufferIP5TokenNS_9allocatorIS2_EEE8capacityB7v160006Ev, symObjAddr: 0x7A80, symBinAddr: 0x10000BC74, symSize: 0x40 }
  - { offsetInCU: 0x11E4E, offset: 0x11E4E, size: 0x8, addend: 0x0, symName: __ZNSt3__114__split_bufferIP5TokenNS_9allocatorIS2_EEE17__destruct_at_endB7v160006EPS2_, symObjAddr: 0x7AC0, symBinAddr: 0x10000BCB4, symSize: 0x2C }
  - { offsetInCU: 0x11E82, offset: 0x11E82, size: 0x8, addend: 0x0, symName: __ZNSt3__114__split_bufferIP5TokenNS_9allocatorIS2_EEE17__destruct_at_endB7v160006EPS2_NS_17integral_constantIbLb0EEE, symObjAddr: 0x7AEC, symBinAddr: 0x10000BCE0, symSize: 0x80 }
  - { offsetInCU: 0x11EC2, offset: 0x11EC2, size: 0x8, addend: 0x0, symName: __ZNSt3__116allocator_traitsINS_9allocatorIP5TokenEEE7destroyB7v160006IS3_vEEvRS4_PT_, symObjAddr: 0x7B6C, symBinAddr: 0x10000BD60, symSize: 0x2C }
  - { offsetInCU: 0x11EFF, offset: 0x11EFF, size: 0x8, addend: 0x0, symName: __ZNSt3__19allocatorIP5TokenE7destroyB7v160006EPS2_, symObjAddr: 0x7BAC, symBinAddr: 0x10000BDA0, symSize: 0x14 }
  - { offsetInCU: 0x11F33, offset: 0x11F33, size: 0x8, addend: 0x0, symName: __ZNSt3__19allocatorIP5TokenE10deallocateB7v160006EPS2_m, symObjAddr: 0x7BC0, symBinAddr: 0x10000BDB4, symSize: 0x40 }
  - { offsetInCU: 0x11F75, offset: 0x11F75, size: 0x8, addend: 0x0, symName: __ZNSt3__117__compressed_pairIPP5TokenNS_9allocatorIS2_EEE6secondB7v160006Ev, symObjAddr: 0x7C00, symBinAddr: 0x10000BDF4, symSize: 0x24 }
  - { offsetInCU: 0x11F9B, offset: 0x11F9B, size: 0x8, addend: 0x0, symName: __ZNSt3__122__compressed_pair_elemINS_9allocatorIP5TokenEELi1ELb1EE5__getB7v160006Ev, symObjAddr: 0x7C24, symBinAddr: 0x10000BE18, symSize: 0x14 }
  - { offsetInCU: 0x11FC1, offset: 0x11FC1, size: 0x8, addend: 0x0, symName: __ZNKSt3__114__split_bufferIP5TokenNS_9allocatorIS2_EEE9__end_capB7v160006Ev, symObjAddr: 0x7C38, symBinAddr: 0x10000BE2C, symSize: 0x28 }
  - { offsetInCU: 0x11FE7, offset: 0x11FE7, size: 0x8, addend: 0x0, symName: __ZNKSt3__117__compressed_pairIPP5TokenNS_9allocatorIS2_EEE5firstB7v160006Ev, symObjAddr: 0x7C60, symBinAddr: 0x10000BE54, symSize: 0x24 }
  - { offsetInCU: 0x1200D, offset: 0x1200D, size: 0x8, addend: 0x0, symName: __ZNKSt3__122__compressed_pair_elemIPP5TokenLi0ELb0EE5__getB7v160006Ev, symObjAddr: 0x7C84, symBinAddr: 0x10000BE78, symSize: 0x14 }
  - { offsetInCU: 0x12033, offset: 0x12033, size: 0x8, addend: 0x0, symName: __ZNKSt3__15dequeI5TokenNS_9allocatorIS1_EEE12__back_spareB7v160006Ev, symObjAddr: 0x7C98, symBinAddr: 0x10000BE8C, symSize: 0x54 }
  - { offsetInCU: 0x12059, offset: 0x12059, size: 0x8, addend: 0x0, symName: __ZNSt3__15dequeI5TokenNS_9allocatorIS1_EEE19__add_back_capacityEv, symObjAddr: 0x7CEC, symBinAddr: 0x10000BEE0, symSize: 0x314 }
  - { offsetInCU: 0x12111, offset: 0x12111, size: 0x8, addend: 0x0, symName: __ZNSt3__116allocator_traitsINS_9allocatorI5TokenEEE9constructB7v160006IS2_JRKS2_EvEEvRS3_PT_DpOT0_, symObjAddr: 0x8000, symBinAddr: 0x10000C1F4, symSize: 0x34 }
  - { offsetInCU: 0x12168, offset: 0x12168, size: 0x8, addend: 0x0, symName: __ZNKSt3__15dequeI5TokenNS_9allocatorIS1_EEE10__capacityB7v160006Ev, symObjAddr: 0x8034, symBinAddr: 0x10000C228, symSize: 0x64 }
  - { offsetInCU: 0x1218E, offset: 0x1218E, size: 0x8, addend: 0x0, symName: __ZNKSt3__15dequeI5TokenNS_9allocatorIS1_EEE13__front_spareB7v160006Ev, symObjAddr: 0x8098, symBinAddr: 0x10000C28C, symSize: 0x18 }
  - { offsetInCU: 0x121B4, offset: 0x121B4, size: 0x8, addend: 0x0, symName: __ZNSt3__114__split_bufferIP5TokenNS_9allocatorIS2_EEE9push_backB7v160006ERKS2_, symObjAddr: 0x80B0, symBinAddr: 0x10000C2A4, symSize: 0x260 }
  - { offsetInCU: 0x1222D, offset: 0x1222D, size: 0x8, addend: 0x0, symName: __ZNKSt3__114__split_bufferIP5TokenNS_9allocatorIS2_EEE12__back_spareB7v160006Ev, symObjAddr: 0x8310, symBinAddr: 0x10000C504, symSize: 0x40 }
  - { offsetInCU: 0x12253, offset: 0x12253, size: 0x8, addend: 0x0, symName: __ZNSt3__114__split_bufferIP5TokenNS_9allocatorIS2_EEE9push_backEOS2_, symObjAddr: 0x8350, symBinAddr: 0x10000C544, symSize: 0x260 }
  - { offsetInCU: 0x122CC, offset: 0x122CC, size: 0x8, addend: 0x0, symName: __ZNSt3__116allocator_traitsINS_9allocatorI5TokenEEE8allocateB7v160006ERS3_m, symObjAddr: 0x85B0, symBinAddr: 0x10000C7A4, symSize: 0x2C }
  - { offsetInCU: 0x122FF, offset: 0x122FF, size: 0x8, addend: 0x0, symName: __ZNSt3__114__split_bufferIP5TokenNS_9allocatorIS2_EEE10push_frontEOS2_, symObjAddr: 0x85DC, symBinAddr: 0x10000C7D0, symSize: 0x25C }
  - { offsetInCU: 0x12378, offset: 0x12378, size: 0x8, addend: 0x0, symName: __ZNSt3__114__split_bufferIP5TokenRNS_9allocatorIS2_EEEC1EmmS5_, symObjAddr: 0x8864, symBinAddr: 0x10000CA58, symSize: 0x44 }
  - { offsetInCU: 0x123D3, offset: 0x123D3, size: 0x8, addend: 0x0, symName: __ZNSt3__122__allocator_destructorINS_9allocatorI5TokenEEEC1B7v160006ERS3_m, symObjAddr: 0x88A8, symBinAddr: 0x10000CA9C, symSize: 0x3C }
  - { offsetInCU: 0x12496, offset: 0x12496, size: 0x8, addend: 0x0, symName: __ZNSt3__110unique_ptrIP5TokenNS_22__allocator_destructorINS_9allocatorIS1_EEEEEC1B7v160006ILb1EvEES2_NS_16__dependent_typeINS_27__unique_ptr_deleter_sfinaeIS6_EEXT_EE20__good_rval_ref_typeE, symObjAddr: 0x88E4, symBinAddr: 0x10000CAD8, symSize: 0x3C }
  - { offsetInCU: 0x124E7, offset: 0x124E7, size: 0x8, addend: 0x0, symName: __ZNSt3__114__split_bufferIP5TokenRNS_9allocatorIS2_EEE9push_backEOS2_, symObjAddr: 0x8920, symBinAddr: 0x10000CB14, symSize: 0x260 }
  - { offsetInCU: 0x12560, offset: 0x12560, size: 0x8, addend: 0x0, symName: __ZNKSt3__110unique_ptrIP5TokenNS_22__allocator_destructorINS_9allocatorIS1_EEEEE3getB7v160006Ev, symObjAddr: 0x8B80, symBinAddr: 0x10000CD74, symSize: 0x28 }
  - { offsetInCU: 0x12586, offset: 0x12586, size: 0x8, addend: 0x0, symName: __ZNSt3__110unique_ptrIP5TokenNS_22__allocator_destructorINS_9allocatorIS1_EEEEE7releaseB7v160006Ev, symObjAddr: 0x8BA8, symBinAddr: 0x10000CD9C, symSize: 0x44 }
  - { offsetInCU: 0x125BB, offset: 0x125BB, size: 0x8, addend: 0x0, symName: __ZNSt3__114__split_bufferIP5TokenRNS_9allocatorIS2_EEE10push_frontERKS2_, symObjAddr: 0x8BEC, symBinAddr: 0x10000CDE0, symSize: 0x25C }
  - { offsetInCU: 0x12634, offset: 0x12634, size: 0x8, addend: 0x0, symName: __ZNSt3__114__split_bufferIP5TokenNS_9allocatorIS2_EEE9__end_capB7v160006Ev, symObjAddr: 0x8E84, symBinAddr: 0x10000D078, symSize: 0x28 }
  - { offsetInCU: 0x1265A, offset: 0x1265A, size: 0x8, addend: 0x0, symName: __ZNSt3__114__split_bufferIP5TokenRNS_9allocatorIS2_EEE9__end_capB7v160006Ev, symObjAddr: 0x8EAC, symBinAddr: 0x10000D0A0, symSize: 0x28 }
  - { offsetInCU: 0x12680, offset: 0x12680, size: 0x8, addend: 0x0, symName: __ZNSt3__110unique_ptrIP5TokenNS_22__allocator_destructorINS_9allocatorIS1_EEEEED1B7v160006Ev, symObjAddr: 0x8ED4, symBinAddr: 0x10000D0C8, symSize: 0x2C }
  - { offsetInCU: 0x126AA, offset: 0x126AA, size: 0x8, addend: 0x0, symName: __ZNSt3__114__split_bufferIP5TokenRNS_9allocatorIS2_EEED1Ev, symObjAddr: 0x8F00, symBinAddr: 0x10000D0F4, symSize: 0x2C }
  - { offsetInCU: 0x126D6, offset: 0x126D6, size: 0x8, addend: 0x0, symName: __ZNSt3__114__split_bufferIP5TokenRNS_9allocatorIS2_EEE18__construct_at_endINS_13move_iteratorIPS2_EEEENS_9enable_ifIXsr27__is_cpp17_forward_iteratorIT_EE5valueEvE4typeESC_SC_, symObjAddr: 0x8F6C, symBinAddr: 0x10000D160, symSize: 0xFC }
  - { offsetInCU: 0x12732, offset: 0x12732, size: 0x8, addend: 0x0, symName: __ZNSt3__113move_iteratorIPP5TokenEC1B7v160006ES3_, symObjAddr: 0x9068, symBinAddr: 0x10000D25C, symSize: 0x34 }
  - { offsetInCU: 0x1276A, offset: 0x1276A, size: 0x8, addend: 0x0, symName: __ZNSt3__116allocator_traitsINS_9allocatorIP5TokenEEE9constructB7v160006IS3_JRKS3_EvEEvRS4_PT_DpOT0_, symObjAddr: 0x909C, symBinAddr: 0x10000D290, symSize: 0x34 }
  - { offsetInCU: 0x127E4, offset: 0x127E4, size: 0x8, addend: 0x0, symName: __ZNKSt3__114__move_trivialclB7v160006IP5TokenS3_Li0EEENS_4pairIPT_PT0_EES6_S6_S8_, symObjAddr: 0x926C, symBinAddr: 0x10000D460, symSize: 0x48 }
  - { offsetInCU: 0x12851, offset: 0x12851, size: 0x8, addend: 0x0, symName: __ZNSt3__14pairIPP5TokenS3_EC1B7v160006IRS3_S3_LPv0EEEOT_OT0_, symObjAddr: 0x9434, symBinAddr: 0x10000D628, symSize: 0x3C }
  - { offsetInCU: 0x128AF, offset: 0x128AF, size: 0x8, addend: 0x0, symName: __ZNSt3__14pairIPP5TokenS3_EC2B7v160006IRS3_S3_LPv0EEEOT_OT0_, symObjAddr: 0x9470, symBinAddr: 0x10000D664, symSize: 0x34 }
  - { offsetInCU: 0x1290D, offset: 0x1290D, size: 0x8, addend: 0x0, symName: __ZNSt3__118__unwrap_iter_implIPP5TokenLb1EE8__unwrapB7v160006ES3_, symObjAddr: 0x94A4, symBinAddr: 0x10000D698, symSize: 0x24 }
  - { offsetInCU: 0x12930, offset: 0x12930, size: 0x8, addend: 0x0, symName: __ZNSt3__14pairIPP5TokenS3_EC1B7v160006IS3_S3_LPv0EEEOT_OT0_, symObjAddr: 0x94C8, symBinAddr: 0x10000D6BC, symSize: 0x3C }
  - { offsetInCU: 0x1298E, offset: 0x1298E, size: 0x8, addend: 0x0, symName: __ZNSt3__14pairIPP5TokenS3_EC2B7v160006IS3_S3_LPv0EEEOT_OT0_, symObjAddr: 0x9504, symBinAddr: 0x10000D6F8, symSize: 0x34 }
  - { offsetInCU: 0x129EC, offset: 0x129EC, size: 0x8, addend: 0x0, symName: __ZNSt3__118__unwrap_iter_implIPP5TokenLb1EE8__rewrapB7v160006ES3_S3_, symObjAddr: 0x9538, symBinAddr: 0x10000D72C, symSize: 0x50 }
  - { offsetInCU: 0x12A27, offset: 0x12A27, size: 0x8, addend: 0x0, symName: __ZNSt3__114__split_bufferIP5TokenRNS_9allocatorIS2_EEE21_ConstructTransactionC1B7v160006EPPS2_m, symObjAddr: 0x95C4, symBinAddr: 0x10000D7B8, symSize: 0x3C }
  - { offsetInCU: 0x12A6D, offset: 0x12A6D, size: 0x8, addend: 0x0, symName: __ZNSt3__116allocator_traitsINS_9allocatorIP5TokenEEE9constructB7v160006IS3_JS3_EvEEvRS4_PT_DpOT0_, symObjAddr: 0x9600, symBinAddr: 0x10000D7F4, symSize: 0x34 }
  - { offsetInCU: 0x12AC4, offset: 0x12AC4, size: 0x8, addend: 0x0, symName: __ZNSt3__114__split_bufferIP5TokenRNS_9allocatorIS2_EEE7__allocB7v160006Ev, symObjAddr: 0x9634, symBinAddr: 0x10000D828, symSize: 0x28 }
  - { offsetInCU: 0x12AEA, offset: 0x12AEA, size: 0x8, addend: 0x0, symName: __ZNKSt3__113move_iteratorIPP5TokenEdeB7v160006Ev, symObjAddr: 0x965C, symBinAddr: 0x10000D850, symSize: 0x18 }
  - { offsetInCU: 0x12B10, offset: 0x12B10, size: 0x8, addend: 0x0, symName: __ZNSt3__113move_iteratorIPP5TokenEppB7v160006Ev, symObjAddr: 0x9674, symBinAddr: 0x10000D868, symSize: 0x20 }
  - { offsetInCU: 0x12B36, offset: 0x12B36, size: 0x8, addend: 0x0, symName: __ZNSt3__114__split_bufferIP5TokenRNS_9allocatorIS2_EEE21_ConstructTransactionD1B7v160006Ev, symObjAddr: 0x9694, symBinAddr: 0x10000D888, symSize: 0x2C }
  - { offsetInCU: 0x12B60, offset: 0x12B60, size: 0x8, addend: 0x0, symName: __ZNKSt3__113move_iteratorIPP5TokenE4baseB7v160006Ev, symObjAddr: 0x9738, symBinAddr: 0x10000D92C, symSize: 0x18 }
  - { offsetInCU: 0x12B86, offset: 0x12B86, size: 0x8, addend: 0x0, symName: __ZNSt3__114__split_bufferIP5TokenRNS_9allocatorIS2_EEE21_ConstructTransactionC2B7v160006EPPS2_m, symObjAddr: 0x9750, symBinAddr: 0x10000D944, symSize: 0x44 }
  - { offsetInCU: 0x12BCC, offset: 0x12BCC, size: 0x8, addend: 0x0, symName: __ZNSt3__19allocatorIP5TokenE9constructB7v160006IS2_JS2_EEEvPT_DpOT0_, symObjAddr: 0x9794, symBinAddr: 0x10000D988, symSize: 0x28 }
  - { offsetInCU: 0x12C22, offset: 0x12C22, size: 0x8, addend: 0x0, symName: __ZNSt3__117__compressed_pairIPP5TokenRNS_9allocatorIS2_EEE6secondB7v160006Ev, symObjAddr: 0x97BC, symBinAddr: 0x10000D9B0, symSize: 0x28 }
  - { offsetInCU: 0x12C48, offset: 0x12C48, size: 0x8, addend: 0x0, symName: __ZNSt3__122__compressed_pair_elemIRNS_9allocatorIP5TokenEELi1ELb0EE5__getB7v160006Ev, symObjAddr: 0x97E4, symBinAddr: 0x10000D9D8, symSize: 0x18 }
  - { offsetInCU: 0x12C6E, offset: 0x12C6E, size: 0x8, addend: 0x0, symName: __ZNSt3__114__split_bufferIP5TokenRNS_9allocatorIS2_EEE21_ConstructTransactionD2B7v160006Ev, symObjAddr: 0x97FC, symBinAddr: 0x10000D9F0, symSize: 0x20 }
  - { offsetInCU: 0x12C98, offset: 0x12C98, size: 0x8, addend: 0x0, symName: __ZNSt3__113move_iteratorIPP5TokenEC2B7v160006ES3_, symObjAddr: 0x981C, symBinAddr: 0x10000DA10, symSize: 0x20 }
  - { offsetInCU: 0x12CD0, offset: 0x12CD0, size: 0x8, addend: 0x0, symName: __ZNSt3__19allocatorIP5TokenE9constructB7v160006IS2_JRKS2_EEEvPT_DpOT0_, symObjAddr: 0x983C, symBinAddr: 0x10000DA30, symSize: 0x28 }
  - { offsetInCU: 0x12D26, offset: 0x12D26, size: 0x8, addend: 0x0, symName: __ZNSt3__19allocatorI5TokenE8allocateB7v160006Em, symObjAddr: 0x9864, symBinAddr: 0x10000DA58, symSize: 0x5C }
  - { offsetInCU: 0x12D64, offset: 0x12D64, size: 0x8, addend: 0x0, symName: __ZNSt3__116allocator_traitsINS_9allocatorI5TokenEEE8max_sizeB7v160006IS3_vEEmRKS3_, symObjAddr: 0x98C0, symBinAddr: 0x10000DAB4, symSize: 0x24 }
  - { offsetInCU: 0x12D92, offset: 0x12D92, size: 0x8, addend: 0x0, symName: __ZNKSt3__19allocatorI5TokenE8max_sizeB7v160006Ev, symObjAddr: 0x9940, symBinAddr: 0x10000DB34, symSize: 0x18 }
  - { offsetInCU: 0x12DC2, offset: 0x12DC2, size: 0x8, addend: 0x0, symName: __ZNKSt3__123__move_backward_trivialclB7v160006IP5TokenS3_Li0EEENS_4pairIPT_PT0_EES6_S6_S8_, symObjAddr: 0x9AF8, symBinAddr: 0x10000DCEC, symSize: 0x48 }
  - { offsetInCU: 0x12E2A, offset: 0x12E2A, size: 0x8, addend: 0x0, symName: __ZNSt3__14pairIPP5TokenS3_EC1B7v160006IRS3_S6_LPv0EEEOT_OT0_, symObjAddr: 0x9C0C, symBinAddr: 0x10000DE00, symSize: 0x3C }
  - { offsetInCU: 0x12E88, offset: 0x12E88, size: 0x8, addend: 0x0, symName: __ZNSt3__14pairIPP5TokenS3_EC2B7v160006IRS3_S6_LPv0EEEOT_OT0_, symObjAddr: 0x9C48, symBinAddr: 0x10000DE3C, symSize: 0x34 }
  - { offsetInCU: 0x12EF0, offset: 0x12EF0, size: 0x8, addend: 0x0, symName: __ZNKSt3__16__lessImmEclB7v160006ERKmS3_, symObjAddr: 0x9CD0, symBinAddr: 0x10000DEC4, symSize: 0x34 }
  - { offsetInCU: 0x12F32, offset: 0x12F32, size: 0x8, addend: 0x0, symName: __ZNSt3__114__split_bufferIP5TokenRNS_9allocatorIS2_EEEC2EmmS5_, symObjAddr: 0x9D04, symBinAddr: 0x10000DEF8, symSize: 0xD4 }
  - { offsetInCU: 0x12FA6, offset: 0x12FA6, size: 0x8, addend: 0x0, symName: __ZNSt3__117__compressed_pairIPP5TokenRNS_9allocatorIS2_EEEC1B7v160006IDnS6_EEOT_OT0_, symObjAddr: 0x9DD8, symBinAddr: 0x10000DFCC, symSize: 0x3C }
  - { offsetInCU: 0x12FFE, offset: 0x12FFE, size: 0x8, addend: 0x0, symName: __ZNSt3__117__compressed_pairIPP5TokenRNS_9allocatorIS2_EEEC2B7v160006IDnS6_EEOT_OT0_, symObjAddr: 0x9E54, symBinAddr: 0x10000E048, symSize: 0x48 }
  - { offsetInCU: 0x13056, offset: 0x13056, size: 0x8, addend: 0x0, symName: __ZNSt3__122__compressed_pair_elemIRNS_9allocatorIP5TokenEELi1ELb0EEC2B7v160006IS5_vEEOT_, symObjAddr: 0x9E9C, symBinAddr: 0x10000E090, symSize: 0x20 }
  - { offsetInCU: 0x13098, offset: 0x13098, size: 0x8, addend: 0x0, symName: __ZNSt3__19allocatorIP5TokenE8allocateB7v160006Em, symObjAddr: 0x9EBC, symBinAddr: 0x10000E0B0, symSize: 0x58 }
  - { offsetInCU: 0x130D6, offset: 0x130D6, size: 0x8, addend: 0x0, symName: __ZNSt3__116allocator_traitsINS_9allocatorIP5TokenEEE8max_sizeB7v160006IS4_vEEmRKS4_, symObjAddr: 0x9F14, symBinAddr: 0x10000E108, symSize: 0x24 }
  - { offsetInCU: 0x13104, offset: 0x13104, size: 0x8, addend: 0x0, symName: __ZNKSt3__19allocatorIP5TokenE8max_sizeB7v160006Ev, symObjAddr: 0x9F38, symBinAddr: 0x10000E12C, symSize: 0x14 }
  - { offsetInCU: 0x1312A, offset: 0x1312A, size: 0x8, addend: 0x0, symName: __ZNSt3__122__allocator_destructorINS_9allocatorI5TokenEEEC2B7v160006ERS3_m, symObjAddr: 0x9F4C, symBinAddr: 0x10000E140, symSize: 0x2C }
  - { offsetInCU: 0x13170, offset: 0x13170, size: 0x8, addend: 0x0, symName: __ZNSt3__110unique_ptrIP5TokenNS_22__allocator_destructorINS_9allocatorIS1_EEEEEC2B7v160006ILb1EvEES2_NS_16__dependent_typeINS_27__unique_ptr_deleter_sfinaeIS6_EEXT_EE20__good_rval_ref_typeE, symObjAddr: 0x9F78, symBinAddr: 0x10000E16C, symSize: 0x48 }
  - { offsetInCU: 0x131C1, offset: 0x131C1, size: 0x8, addend: 0x0, symName: __ZNSt3__117__compressed_pairIP5TokenNS_22__allocator_destructorINS_9allocatorIS1_EEEEEC1B7v160006IRS2_S6_EEOT_OT0_, symObjAddr: 0x9FC0, symBinAddr: 0x10000E1B4, symSize: 0x3C }
  - { offsetInCU: 0x13219, offset: 0x13219, size: 0x8, addend: 0x0, symName: __ZNSt3__117__compressed_pairIP5TokenNS_22__allocator_destructorINS_9allocatorIS1_EEEEEC2B7v160006IRS2_S6_EEOT_OT0_, symObjAddr: 0x9FFC, symBinAddr: 0x10000E1F0, symSize: 0x48 }
  - { offsetInCU: 0x13271, offset: 0x13271, size: 0x8, addend: 0x0, symName: __ZNSt3__122__compressed_pair_elemIP5TokenLi0ELb0EEC2B7v160006IRS2_vEEOT_, symObjAddr: 0xA044, symBinAddr: 0x10000E238, symSize: 0x24 }
  - { offsetInCU: 0x132B3, offset: 0x132B3, size: 0x8, addend: 0x0, symName: __ZNSt3__122__compressed_pair_elemINS_22__allocator_destructorINS_9allocatorI5TokenEEEELi1ELb0EEC2B7v160006IS5_vEEOT_, symObjAddr: 0xA068, symBinAddr: 0x10000E25C, symSize: 0x24 }
  - { offsetInCU: 0x132F5, offset: 0x132F5, size: 0x8, addend: 0x0, symName: __ZNKSt3__117__compressed_pairIP5TokenNS_22__allocator_destructorINS_9allocatorIS1_EEEEE5firstB7v160006Ev, symObjAddr: 0xA08C, symBinAddr: 0x10000E280, symSize: 0x24 }
  - { offsetInCU: 0x1331B, offset: 0x1331B, size: 0x8, addend: 0x0, symName: __ZNKSt3__122__compressed_pair_elemIP5TokenLi0ELb0EE5__getB7v160006Ev, symObjAddr: 0xA0B0, symBinAddr: 0x10000E2A4, symSize: 0x14 }
  - { offsetInCU: 0x13341, offset: 0x13341, size: 0x8, addend: 0x0, symName: __ZNSt3__117__compressed_pairIP5TokenNS_22__allocator_destructorINS_9allocatorIS1_EEEEE5firstB7v160006Ev, symObjAddr: 0xA0C4, symBinAddr: 0x10000E2B8, symSize: 0x24 }
  - { offsetInCU: 0x13367, offset: 0x13367, size: 0x8, addend: 0x0, symName: __ZNSt3__122__compressed_pair_elemIP5TokenLi0ELb0EE5__getB7v160006Ev, symObjAddr: 0xA0E8, symBinAddr: 0x10000E2DC, symSize: 0x14 }
  - { offsetInCU: 0x1338D, offset: 0x1338D, size: 0x8, addend: 0x0, symName: __ZNSt3__117__compressed_pairIPP5TokenNS_9allocatorIS2_EEE5firstB7v160006Ev, symObjAddr: 0xA0FC, symBinAddr: 0x10000E2F0, symSize: 0x24 }
  - { offsetInCU: 0x133B3, offset: 0x133B3, size: 0x8, addend: 0x0, symName: __ZNSt3__122__compressed_pair_elemIPP5TokenLi0ELb0EE5__getB7v160006Ev, symObjAddr: 0xA120, symBinAddr: 0x10000E314, symSize: 0x14 }
  - { offsetInCU: 0x133D9, offset: 0x133D9, size: 0x8, addend: 0x0, symName: __ZNSt3__117__compressed_pairIPP5TokenRNS_9allocatorIS2_EEE5firstB7v160006Ev, symObjAddr: 0xA134, symBinAddr: 0x10000E328, symSize: 0x24 }
  - { offsetInCU: 0x133FF, offset: 0x133FF, size: 0x8, addend: 0x0, symName: __ZNSt3__110unique_ptrIP5TokenNS_22__allocator_destructorINS_9allocatorIS1_EEEEED2B7v160006Ev, symObjAddr: 0xA158, symBinAddr: 0x10000E34C, symSize: 0x30 }
  - { offsetInCU: 0x13429, offset: 0x13429, size: 0x8, addend: 0x0, symName: __ZNSt3__110unique_ptrIP5TokenNS_22__allocator_destructorINS_9allocatorIS1_EEEEE5resetB7v160006ES2_, symObjAddr: 0xA188, symBinAddr: 0x10000E37C, symSize: 0x78 }
  - { offsetInCU: 0x1346D, offset: 0x1346D, size: 0x8, addend: 0x0, symName: __ZNSt3__117__compressed_pairIP5TokenNS_22__allocator_destructorINS_9allocatorIS1_EEEEE6secondB7v160006Ev, symObjAddr: 0xA200, symBinAddr: 0x10000E3F4, symSize: 0x28 }
  - { offsetInCU: 0x13493, offset: 0x13493, size: 0x8, addend: 0x0, symName: __ZNSt3__122__allocator_destructorINS_9allocatorI5TokenEEEclB7v160006EPS2_, symObjAddr: 0xA228, symBinAddr: 0x10000E41C, symSize: 0x34 }
  - { offsetInCU: 0x134C7, offset: 0x134C7, size: 0x8, addend: 0x0, symName: __ZNSt3__122__compressed_pair_elemINS_22__allocator_destructorINS_9allocatorI5TokenEEEELi1ELb0EE5__getB7v160006Ev, symObjAddr: 0xA25C, symBinAddr: 0x10000E450, symSize: 0x14 }
  - { offsetInCU: 0x134ED, offset: 0x134ED, size: 0x8, addend: 0x0, symName: __ZNSt3__114__split_bufferIP5TokenRNS_9allocatorIS2_EEED2Ev, symObjAddr: 0xA270, symBinAddr: 0x10000E464, symSize: 0x8C }
  - { offsetInCU: 0x13519, offset: 0x13519, size: 0x8, addend: 0x0, symName: __ZNSt3__114__split_bufferIP5TokenRNS_9allocatorIS2_EEE5clearB7v160006Ev, symObjAddr: 0xA2FC, symBinAddr: 0x10000E4F0, symSize: 0x28 }
  - { offsetInCU: 0x1353F, offset: 0x1353F, size: 0x8, addend: 0x0, symName: __ZNKSt3__114__split_bufferIP5TokenRNS_9allocatorIS2_EEE8capacityB7v160006Ev, symObjAddr: 0xA324, symBinAddr: 0x10000E518, symSize: 0x40 }
  - { offsetInCU: 0x13565, offset: 0x13565, size: 0x8, addend: 0x0, symName: __ZNSt3__114__split_bufferIP5TokenRNS_9allocatorIS2_EEE17__destruct_at_endB7v160006EPS2_, symObjAddr: 0xA364, symBinAddr: 0x10000E558, symSize: 0x2C }
  - { offsetInCU: 0x13599, offset: 0x13599, size: 0x8, addend: 0x0, symName: __ZNSt3__114__split_bufferIP5TokenRNS_9allocatorIS2_EEE17__destruct_at_endB7v160006EPS2_NS_17integral_constantIbLb0EEE, symObjAddr: 0xA390, symBinAddr: 0x10000E584, symSize: 0x80 }
  - { offsetInCU: 0x135D9, offset: 0x135D9, size: 0x8, addend: 0x0, symName: __ZNKSt3__114__split_bufferIP5TokenRNS_9allocatorIS2_EEE9__end_capB7v160006Ev, symObjAddr: 0xA410, symBinAddr: 0x10000E604, symSize: 0x28 }
  - { offsetInCU: 0x135FF, offset: 0x135FF, size: 0x8, addend: 0x0, symName: __ZNKSt3__117__compressed_pairIPP5TokenRNS_9allocatorIS2_EEE5firstB7v160006Ev, symObjAddr: 0xA438, symBinAddr: 0x10000E62C, symSize: 0x24 }
  - { offsetInCU: 0x13625, offset: 0x13625, size: 0x8, addend: 0x0, symName: __ZNSt3__19allocatorI5TokenE9constructB7v160006IS1_JRKS1_EEEvPT_DpOT0_, symObjAddr: 0xA45C, symBinAddr: 0x10000E650, symSize: 0x30 }
  - { offsetInCU: 0x1367B, offset: 0x1367B, size: 0x8, addend: 0x0, symName: __ZNSt3__15dequeI5TokenNS_9allocatorIS1_EEE26__maybe_remove_front_spareB7v160006Eb, symObjAddr: 0xA4A0, symBinAddr: 0x10000E694, symSize: 0xDC }
  - { offsetInCU: 0x136B0, offset: 0x136B0, size: 0x8, addend: 0x0, symName: __ZNKSt3__15dequeI5TokenNS_9allocatorIS1_EEE20__front_spare_blocksB7v160006Ev, symObjAddr: 0xA57C, symBinAddr: 0x10000E770, symSize: 0x2C }
  - { offsetInCU: 0x136D6, offset: 0x136D6, size: 0x8, addend: 0x0, symName: __ZNSt3__111char_traitsIcE6lengthEPKc, symObjAddr: 0xA794, symBinAddr: 0x10000E988, symSize: 0x34 }
  - { offsetInCU: 0x13717, offset: 0x13717, size: 0x8, addend: 0x0, symName: __ZNKSt3__113basic_ostreamIcNS_11char_traitsIcEEE6sentrycvbB7v160006Ev, symObjAddr: 0xA7C8, symBinAddr: 0x10000E9BC, symSize: 0x1C }
  - { offsetInCU: 0x1373D, offset: 0x1373D, size: 0x8, addend: 0x0, symName: __ZNSt3__119ostreambuf_iteratorIcNS_11char_traitsIcEEEC1B7v160006ERNS_13basic_ostreamIcS2_EE, symObjAddr: 0xAA24, symBinAddr: 0x10000EC18, symSize: 0x34 }
  - { offsetInCU: 0x13775, offset: 0x13775, size: 0x8, addend: 0x0, symName: __ZNKSt3__18ios_base5flagsB7v160006Ev, symObjAddr: 0xAA58, symBinAddr: 0x10000EC4C, symSize: 0x18 }
  - { offsetInCU: 0x1379D, offset: 0x1379D, size: 0x8, addend: 0x0, symName: __ZNKSt3__19basic_iosIcNS_11char_traitsIcEEE4fillB7v160006Ev, symObjAddr: 0xAA70, symBinAddr: 0x10000EC64, symSize: 0x64 }
  - { offsetInCU: 0x137C5, offset: 0x137C5, size: 0x8, addend: 0x0, symName: __ZNKSt3__119ostreambuf_iteratorIcNS_11char_traitsIcEEE6failedB7v160006Ev, symObjAddr: 0xAAD4, symBinAddr: 0x10000ECC8, symSize: 0x24 }
  - { offsetInCU: 0x137EB, offset: 0x137EB, size: 0x8, addend: 0x0, symName: __ZNSt3__19basic_iosIcNS_11char_traitsIcEEE8setstateB7v160006Ej, symObjAddr: 0xAAF8, symBinAddr: 0x10000ECEC, symSize: 0x2C }
  - { offsetInCU: 0x13820, offset: 0x13820, size: 0x8, addend: 0x0, symName: __ZNKSt3__18ios_base5widthB7v160006Ev, symObjAddr: 0xAB24, symBinAddr: 0x10000ED18, symSize: 0x18 }
  - { offsetInCU: 0x13848, offset: 0x13848, size: 0x8, addend: 0x0, symName: __ZNSt3__115basic_streambufIcNS_11char_traitsIcEEE5sputnB7v160006EPKcl, symObjAddr: 0xAB3C, symBinAddr: 0x10000ED30, symSize: 0x3C }
  - { offsetInCU: 0x1388A, offset: 0x1388A, size: 0x8, addend: 0x0, symName: __ZNSt3__112basic_stringIcNS_11char_traitsIcEENS_9allocatorIcEEEC1B7v160006Emc, symObjAddr: 0xAB78, symBinAddr: 0x10000ED6C, symSize: 0x3C }
  - { offsetInCU: 0x138D2, offset: 0x138D2, size: 0x8, addend: 0x0, symName: __ZNSt3__18ios_base5widthB7v160006El, symObjAddr: 0xABB4, symBinAddr: 0x10000EDA8, symSize: 0x2C }
  - { offsetInCU: 0x13918, offset: 0x13918, size: 0x8, addend: 0x0, symName: __ZNSt3__112basic_stringIcNS_11char_traitsIcEENS_9allocatorIcEEEC2B7v160006Emc, symObjAddr: 0xABE0, symBinAddr: 0x10000EDD4, symSize: 0x54 }
  - { offsetInCU: 0x13960, offset: 0x13960, size: 0x8, addend: 0x0, symName: __ZNSt3__119ostreambuf_iteratorIcNS_11char_traitsIcEEEC2B7v160006ERNS_13basic_ostreamIcS2_EE, symObjAddr: 0xAC34, symBinAddr: 0x10000EE28, symSize: 0x54 }
  - { offsetInCU: 0x13998, offset: 0x13998, size: 0x8, addend: 0x0, symName: __ZNKSt3__19basic_iosIcNS_11char_traitsIcEEE5rdbufB7v160006Ev, symObjAddr: 0xAC88, symBinAddr: 0x10000EE7C, symSize: 0x24 }
  - { offsetInCU: 0x139C0, offset: 0x139C0, size: 0x8, addend: 0x0, symName: __ZNKSt3__18ios_base5rdbufB7v160006Ev, symObjAddr: 0xACAC, symBinAddr: 0x10000EEA0, symSize: 0x18 }
  - { offsetInCU: 0x139E6, offset: 0x139E6, size: 0x8, addend: 0x0, symName: __ZNSt3__111char_traitsIcE11eq_int_typeEii, symObjAddr: 0xACC4, symBinAddr: 0x10000EEB8, symSize: 0x28 }
  - { offsetInCU: 0x13A17, offset: 0x13A17, size: 0x8, addend: 0x0, symName: __ZNSt3__111char_traitsIcE3eofEv, symObjAddr: 0xACEC, symBinAddr: 0x10000EEE0, symSize: 0x8 }
  - { offsetInCU: 0x13A2B, offset: 0x13A2B, size: 0x8, addend: 0x0, symName: __ZNKSt3__19basic_iosIcNS_11char_traitsIcEEE5widenB7v160006Ec, symObjAddr: 0xACF4, symBinAddr: 0x10000EEE8, symSize: 0x84 }
  - { offsetInCU: 0x13A99, offset: 0x13A99, size: 0x8, addend: 0x0, symName: __ZNKSt3__15ctypeIcE5widenB7v160006Ec, symObjAddr: 0xADA4, symBinAddr: 0x10000EF98, symSize: 0x38 }
  - { offsetInCU: 0x13ACE, offset: 0x13ACE, size: 0x8, addend: 0x0, symName: __ZNSt3__18ios_base8setstateB7v160006Ej, symObjAddr: 0xADDC, symBinAddr: 0x10000EFD0, symSize: 0x34 }
  - { offsetInCU: 0x13B05, offset: 0x13B05, size: 0x8, addend: 0x0, symName: __ZNSt3__16vectorINS_12basic_stringIcNS_11char_traitsIcEENS_9allocatorIcEEEENS4_IS6_EEE11__make_iterB7v160006EPS6_, symObjAddr: 0xAE34, symBinAddr: 0x10000F028, symSize: 0x34 }
  - { offsetInCU: 0x13B3A, offset: 0x13B3A, size: 0x8, addend: 0x0, symName: __ZNSt3__111__wrap_iterIPNS_12basic_stringIcNS_11char_traitsIcEENS_9allocatorIcEEEEEC1B7v160006EPKvS7_, symObjAddr: 0xAE68, symBinAddr: 0x10000F05C, symSize: 0x3C }
  - { offsetInCU: 0x13B80, offset: 0x13B80, size: 0x8, addend: 0x0, symName: __ZNSt3__111__wrap_iterIPNS_12basic_stringIcNS_11char_traitsIcEENS_9allocatorIcEEEEEC2B7v160006EPKvS7_, symObjAddr: 0xAEA4, symBinAddr: 0x10000F098, symSize: 0x24 }
  - { offsetInCU: 0x13BC6, offset: 0x13BC6, size: 0x8, addend: 0x0, symName: __ZNKSt3__111__wrap_iterIPNS_12basic_stringIcNS_11char_traitsIcEENS_9allocatorIcEEEEEdeB7v160006Ev, symObjAddr: 0xB010, symBinAddr: 0x10000F204, symSize: 0x18 }
  - { offsetInCU: 0x13BEC, offset: 0x13BEC, size: 0x8, addend: 0x0, symName: __ZNSt3__111__wrap_iterIPNS_12basic_stringIcNS_11char_traitsIcEENS_9allocatorIcEEEEEppB7v160006Ev, symObjAddr: 0xB028, symBinAddr: 0x10000F21C, symSize: 0x20 }
  - { offsetInCU: 0x13C12, offset: 0x13C12, size: 0x8, addend: 0x0, symName: __ZNSt3__111char_traitsIcE7compareEPKcS3_m, symObjAddr: 0xB048, symBinAddr: 0x10000F23C, symSize: 0x6C }
  - { offsetInCU: 0x13C51, offset: 0x13C51, size: 0x8, addend: 0x0, symName: __ZNSt3__16vectorINS_12basic_stringIcNS_11char_traitsIcEENS_9allocatorIcEEEENS4_IS6_EEE9__end_capB7v160006Ev, symObjAddr: 0xB160, symBinAddr: 0x10000F354, symSize: 0x28 }
  - { offsetInCU: 0x13C77, offset: 0x13C77, size: 0x8, addend: 0x0, symName: __ZNSt3__16vectorINS_12basic_stringIcNS_11char_traitsIcEENS_9allocatorIcEEEENS4_IS6_EEE22__construct_one_at_endB7v160006IJRKS6_EEEvDpOT_, symObjAddr: 0xB188, symBinAddr: 0x10000F37C, symSize: 0x90 }
  - { offsetInCU: 0x13CC6, offset: 0x13CC6, size: 0x8, addend: 0x0, symName: __ZNSt3__16vectorINS_12basic_stringIcNS_11char_traitsIcEENS_9allocatorIcEEEENS4_IS6_EEE21__push_back_slow_pathIRKS6_EEvOT_, symObjAddr: 0xB218, symBinAddr: 0x10000F40C, symSize: 0xD8 }
  - { offsetInCU: 0x13D24, offset: 0x13D24, size: 0x8, addend: 0x0, symName: __ZNSt3__117__compressed_pairIPNS_12basic_stringIcNS_11char_traitsIcEENS_9allocatorIcEEEENS4_IS6_EEE5firstB7v160006Ev, symObjAddr: 0xB2F0, symBinAddr: 0x10000F4E4, symSize: 0x24 }
  - { offsetInCU: 0x13D4A, offset: 0x13D4A, size: 0x8, addend: 0x0, symName: __ZNSt3__122__compressed_pair_elemIPNS_12basic_stringIcNS_11char_traitsIcEENS_9allocatorIcEEEELi0ELb0EE5__getB7v160006Ev, symObjAddr: 0xB314, symBinAddr: 0x10000F508, symSize: 0x14 }
  - { offsetInCU: 0x13D89, offset: 0x13D89, size: 0x8, addend: 0x0, symName: __ZNSt3__16vectorINS_12basic_stringIcNS_11char_traitsIcEENS_9allocatorIcEEEENS4_IS6_EEE21_ConstructTransactionC1B7v160006ERS8_m, symObjAddr: 0xB328, symBinAddr: 0x10000F51C, symSize: 0x3C }
  - { offsetInCU: 0x13DD1, offset: 0x13DD1, size: 0x8, addend: 0x0, symName: __ZNSt3__116allocator_traitsINS_9allocatorINS_12basic_stringIcNS_11char_traitsIcEENS1_IcEEEEEEE9constructB7v160006IS6_JRKS6_EvEEvRS7_PT_DpOT0_, symObjAddr: 0xB364, symBinAddr: 0x10000F558, symSize: 0x34 }
  - { offsetInCU: 0x13E28, offset: 0x13E28, size: 0x8, addend: 0x0, symName: __ZNSt3__16vectorINS_12basic_stringIcNS_11char_traitsIcEENS_9allocatorIcEEEENS4_IS6_EEE21_ConstructTransactionD1B7v160006Ev, symObjAddr: 0xB398, symBinAddr: 0x10000F58C, symSize: 0x2C }
  - { offsetInCU: 0x13E52, offset: 0x13E52, size: 0x8, addend: 0x0, symName: __ZNSt3__16vectorINS_12basic_stringIcNS_11char_traitsIcEENS_9allocatorIcEEEENS4_IS6_EEE21_ConstructTransactionC2B7v160006ERS8_m, symObjAddr: 0xB3C4, symBinAddr: 0x10000F5B8, symSize: 0x4C }
  - { offsetInCU: 0x13E9A, offset: 0x13E9A, size: 0x8, addend: 0x0, symName: __ZNSt3__19allocatorINS_12basic_stringIcNS_11char_traitsIcEENS0_IcEEEEE9constructB7v160006IS5_JRKS5_EEEvPT_DpOT0_, symObjAddr: 0xB410, symBinAddr: 0x10000F604, symSize: 0x30 }
  - { offsetInCU: 0x13EF0, offset: 0x13EF0, size: 0x8, addend: 0x0, symName: __ZNSt3__16vectorINS_12basic_stringIcNS_11char_traitsIcEENS_9allocatorIcEEEENS4_IS6_EEE21_ConstructTransactionD2B7v160006Ev, symObjAddr: 0xB440, symBinAddr: 0x10000F634, symSize: 0x20 }
  - { offsetInCU: 0x13F1A, offset: 0x13F1A, size: 0x8, addend: 0x0, symName: __ZNKSt3__16vectorINS_12basic_stringIcNS_11char_traitsIcEENS_9allocatorIcEEEENS4_IS6_EEE11__recommendB7v160006Em, symObjAddr: 0xB460, symBinAddr: 0x10000F654, symSize: 0xB4 }
  - { offsetInCU: 0x13F6F, offset: 0x13F6F, size: 0x8, addend: 0x0, symName: __ZNSt3__114__split_bufferINS_12basic_stringIcNS_11char_traitsIcEENS_9allocatorIcEEEERNS4_IS6_EEEC1EmmS8_, symObjAddr: 0xB514, symBinAddr: 0x10000F708, symSize: 0x44 }
  - { offsetInCU: 0x13FC5, offset: 0x13FC5, size: 0x8, addend: 0x0, symName: __ZNSt3__114__split_bufferINS_12basic_stringIcNS_11char_traitsIcEENS_9allocatorIcEEEERNS4_IS6_EEED1Ev, symObjAddr: 0xB670, symBinAddr: 0x10000F864, symSize: 0x2C }
  - { offsetInCU: 0x13FF1, offset: 0x13FF1, size: 0x8, addend: 0x0, symName: __ZNKSt3__16vectorINS_12basic_stringIcNS_11char_traitsIcEENS_9allocatorIcEEEENS4_IS6_EEE8max_sizeEv, symObjAddr: 0xB69C, symBinAddr: 0x10000F890, symSize: 0x60 }
  - { offsetInCU: 0x14019, offset: 0x14019, size: 0x8, addend: 0x0, symName: __ZNKSt3__16vectorINS_12basic_stringIcNS_11char_traitsIcEENS_9allocatorIcEEEENS4_IS6_EEE20__throw_length_errorB7v160006Ev, symObjAddr: 0xB6FC, symBinAddr: 0x10000F8F0, symSize: 0x1C }
  - { offsetInCU: 0x14049, offset: 0x14049, size: 0x8, addend: 0x0, symName: __ZNSt3__116allocator_traitsINS_9allocatorINS_12basic_stringIcNS_11char_traitsIcEENS1_IcEEEEEEE8max_sizeB7v160006IS7_vEEmRKS7_, symObjAddr: 0xB744, symBinAddr: 0x10000F938, symSize: 0x24 }
  - { offsetInCU: 0x14077, offset: 0x14077, size: 0x8, addend: 0x0, symName: __ZNKSt3__16vectorINS_12basic_stringIcNS_11char_traitsIcEENS_9allocatorIcEEEENS4_IS6_EEE7__allocB7v160006Ev, symObjAddr: 0xB768, symBinAddr: 0x10000F95C, symSize: 0x28 }
  - { offsetInCU: 0x1409D, offset: 0x1409D, size: 0x8, addend: 0x0, symName: __ZNSt3__114numeric_limitsIlE3maxB7v160006Ev, symObjAddr: 0xB790, symBinAddr: 0x10000F984, symSize: 0x14 }
  - { offsetInCU: 0x140B1, offset: 0x140B1, size: 0x8, addend: 0x0, symName: __ZNKSt3__19allocatorINS_12basic_stringIcNS_11char_traitsIcEENS0_IcEEEEE8max_sizeB7v160006Ev, symObjAddr: 0xB7F8, symBinAddr: 0x10000F9EC, symSize: 0x18 }
  - { offsetInCU: 0x140D7, offset: 0x140D7, size: 0x8, addend: 0x0, symName: __ZNKSt3__117__compressed_pairIPNS_12basic_stringIcNS_11char_traitsIcEENS_9allocatorIcEEEENS4_IS6_EEE6secondB7v160006Ev, symObjAddr: 0xB810, symBinAddr: 0x10000FA04, symSize: 0x24 }
  - { offsetInCU: 0x140FD, offset: 0x140FD, size: 0x8, addend: 0x0, symName: __ZNKSt3__122__compressed_pair_elemINS_9allocatorINS_12basic_stringIcNS_11char_traitsIcEENS1_IcEEEEEELi1ELb1EE5__getB7v160006Ev, symObjAddr: 0xB834, symBinAddr: 0x10000FA28, symSize: 0x14 }
  - { offsetInCU: 0x14123, offset: 0x14123, size: 0x8, addend: 0x0, symName: __ZNSt3__123__libcpp_numeric_limitsIlLb1EE3maxB7v160006Ev, symObjAddr: 0xB848, symBinAddr: 0x10000FA3C, symSize: 0x8 }
  - { offsetInCU: 0x14137, offset: 0x14137, size: 0x8, addend: 0x0, symName: __ZNSt12length_errorC1B7v160006EPKc, symObjAddr: 0xB8B4, symBinAddr: 0x10000FAA8, symSize: 0x34 }
  - { offsetInCU: 0x1416F, offset: 0x1416F, size: 0x8, addend: 0x0, symName: __ZNSt12length_errorC2B7v160006EPKc, symObjAddr: 0xB8E8, symBinAddr: 0x10000FADC, symSize: 0x4C }
  - { offsetInCU: 0x141A7, offset: 0x141A7, size: 0x8, addend: 0x0, symName: __ZNSt3__114__split_bufferINS_12basic_stringIcNS_11char_traitsIcEENS_9allocatorIcEEEERNS4_IS6_EEEC2EmmS8_, symObjAddr: 0xB934, symBinAddr: 0x10000FB28, symSize: 0xE0 }
  - { offsetInCU: 0x1421B, offset: 0x1421B, size: 0x8, addend: 0x0, symName: __ZNSt3__117__compressed_pairIPNS_12basic_stringIcNS_11char_traitsIcEENS_9allocatorIcEEEERNS4_IS6_EEEC1B7v160006IDnS9_EEOT_OT0_, symObjAddr: 0xBA14, symBinAddr: 0x10000FC08, symSize: 0x3C }
  - { offsetInCU: 0x14273, offset: 0x14273, size: 0x8, addend: 0x0, symName: __ZNSt3__114__split_bufferINS_12basic_stringIcNS_11char_traitsIcEENS_9allocatorIcEEEERNS4_IS6_EEE7__allocB7v160006Ev, symObjAddr: 0xBA90, symBinAddr: 0x10000FC84, symSize: 0x28 }
  - { offsetInCU: 0x14299, offset: 0x14299, size: 0x8, addend: 0x0, symName: __ZNSt3__114__split_bufferINS_12basic_stringIcNS_11char_traitsIcEENS_9allocatorIcEEEERNS4_IS6_EEE9__end_capB7v160006Ev, symObjAddr: 0xBAB8, symBinAddr: 0x10000FCAC, symSize: 0x28 }
  - { offsetInCU: 0x142BF, offset: 0x142BF, size: 0x8, addend: 0x0, symName: __ZNSt3__117__compressed_pairIPNS_12basic_stringIcNS_11char_traitsIcEENS_9allocatorIcEEEERNS4_IS6_EEEC2B7v160006IDnS9_EEOT_OT0_, symObjAddr: 0xBAE0, symBinAddr: 0x10000FCD4, symSize: 0x48 }
  - { offsetInCU: 0x14317, offset: 0x14317, size: 0x8, addend: 0x0, symName: __ZNSt3__122__compressed_pair_elemIRNS_9allocatorINS_12basic_stringIcNS_11char_traitsIcEENS1_IcEEEEEELi1ELb0EEC2B7v160006IS8_vEEOT_, symObjAddr: 0xBB28, symBinAddr: 0x10000FD1C, symSize: 0x20 }
  - { offsetInCU: 0x14359, offset: 0x14359, size: 0x8, addend: 0x0, symName: __ZNSt3__19allocatorINS_12basic_stringIcNS_11char_traitsIcEENS0_IcEEEEE8allocateB7v160006Em, symObjAddr: 0xBB48, symBinAddr: 0x10000FD3C, symSize: 0x5C }
  - { offsetInCU: 0x1438D, offset: 0x1438D, size: 0x8, addend: 0x0, symName: __ZNSt3__117__compressed_pairIPNS_12basic_stringIcNS_11char_traitsIcEENS_9allocatorIcEEEERNS4_IS6_EEE6secondB7v160006Ev, symObjAddr: 0xBBA4, symBinAddr: 0x10000FD98, symSize: 0x28 }
  - { offsetInCU: 0x143B3, offset: 0x143B3, size: 0x8, addend: 0x0, symName: __ZNSt3__122__compressed_pair_elemIRNS_9allocatorINS_12basic_stringIcNS_11char_traitsIcEENS1_IcEEEEEELi1ELb0EE5__getB7v160006Ev, symObjAddr: 0xBBCC, symBinAddr: 0x10000FDC0, symSize: 0x18 }
  - { offsetInCU: 0x143D9, offset: 0x143D9, size: 0x8, addend: 0x0, symName: __ZNSt3__117__compressed_pairIPNS_12basic_stringIcNS_11char_traitsIcEENS_9allocatorIcEEEERNS4_IS6_EEE5firstB7v160006Ev, symObjAddr: 0xBBE4, symBinAddr: 0x10000FDD8, symSize: 0x24 }
  - { offsetInCU: 0x143FF, offset: 0x143FF, size: 0x8, addend: 0x0, symName: __ZNSt3__116reverse_iteratorIPNS_12basic_stringIcNS_11char_traitsIcEENS_9allocatorIcEEEEEC1B7v160006ES7_, symObjAddr: 0xBD34, symBinAddr: 0x10000FF28, symSize: 0x34 }
  - { offsetInCU: 0x14437, offset: 0x14437, size: 0x8, addend: 0x0, symName: __ZNKSt3__116reverse_iteratorIPNS_12basic_stringIcNS_11char_traitsIcEENS_9allocatorIcEEEEE4baseB7v160006Ev, symObjAddr: 0xBD68, symBinAddr: 0x10000FF5C, symSize: 0x18 }
  - { offsetInCU: 0x1445D, offset: 0x1445D, size: 0x8, addend: 0x0, symName: __ZNKSt3__16vectorINS_12basic_stringIcNS_11char_traitsIcEENS_9allocatorIcEEEENS4_IS6_EEE14__annotate_newB7v160006Em, symObjAddr: 0xBDBC, symBinAddr: 0x10000FFB0, symSize: 0xC8 }
  - { offsetInCU: 0x14492, offset: 0x14492, size: 0x8, addend: 0x0, symName: __ZNSt3__129_AllocatorDestroyRangeReverseINS_9allocatorINS_12basic_stringIcNS_11char_traitsIcEENS1_IcEEEEEENS_16reverse_iteratorIPS6_EEEC1B7v160006ERS7_RSA_SD_, symObjAddr: 0xBEE0, symBinAddr: 0x1000100D4, symSize: 0x44 }
  - { offsetInCU: 0x144EE, offset: 0x144EE, size: 0x8, addend: 0x0, symName: __ZNSt3__116allocator_traitsINS_9allocatorINS_12basic_stringIcNS_11char_traitsIcEENS1_IcEEEEEEE9constructB7v160006IS6_JS6_EvEEvRS7_PT_DpOT0_, symObjAddr: 0xBF6C, symBinAddr: 0x100010160, symSize: 0x34 }
  - { offsetInCU: 0x14545, offset: 0x14545, size: 0x8, addend: 0x0, symName: __ZNKSt3__116reverse_iteratorIPNS_12basic_stringIcNS_11char_traitsIcEENS_9allocatorIcEEEEEdeB7v160006Ev, symObjAddr: 0xBFC4, symBinAddr: 0x1000101B8, symSize: 0x28 }
  - { offsetInCU: 0x14579, offset: 0x14579, size: 0x8, addend: 0x0, symName: __ZNSt3__116reverse_iteratorIPNS_12basic_stringIcNS_11char_traitsIcEENS_9allocatorIcEEEEEppB7v160006Ev, symObjAddr: 0xBFEC, symBinAddr: 0x1000101E0, symSize: 0x20 }
  - { offsetInCU: 0x1459F, offset: 0x1459F, size: 0x8, addend: 0x0, symName: __ZNSt3__128__exception_guard_exceptionsINS_29_AllocatorDestroyRangeReverseINS_9allocatorINS_12basic_stringIcNS_11char_traitsIcEENS2_IcEEEEEENS_16reverse_iteratorIPS7_EEEEE10__completeB7v160006Ev, symObjAddr: 0xC00C, symBinAddr: 0x100010200, symSize: 0x1C }
  - { offsetInCU: 0x145C5, offset: 0x145C5, size: 0x8, addend: 0x0, symName: __ZNSt3__128__exception_guard_exceptionsINS_29_AllocatorDestroyRangeReverseINS_9allocatorINS_12basic_stringIcNS_11char_traitsIcEENS2_IcEEEEEENS_16reverse_iteratorIPS7_EEEEED1B7v160006Ev, symObjAddr: 0xC028, symBinAddr: 0x10001021C, symSize: 0x2C }
  - { offsetInCU: 0x145EF, offset: 0x145EF, size: 0x8, addend: 0x0, symName: __ZNSt3__128__exception_guard_exceptionsINS_29_AllocatorDestroyRangeReverseINS_9allocatorINS_12basic_stringIcNS_11char_traitsIcEENS2_IcEEEEEENS_16reverse_iteratorIPS7_EEEEEC1B7v160006ESC_, symObjAddr: 0xC054, symBinAddr: 0x100010248, symSize: 0x34 }
  - { offsetInCU: 0x14628, offset: 0x14628, size: 0x8, addend: 0x0, symName: __ZNSt3__128__exception_guard_exceptionsINS_29_AllocatorDestroyRangeReverseINS_9allocatorINS_12basic_stringIcNS_11char_traitsIcEENS2_IcEEEEEENS_16reverse_iteratorIPS7_EEEEEC2B7v160006ESC_, symObjAddr: 0xC088, symBinAddr: 0x10001027C, symSize: 0x30 }
  - { offsetInCU: 0x14661, offset: 0x14661, size: 0x8, addend: 0x0, symName: __ZNSt3__129_AllocatorDestroyRangeReverseINS_9allocatorINS_12basic_stringIcNS_11char_traitsIcEENS1_IcEEEEEENS_16reverse_iteratorIPS6_EEEC2B7v160006ERS7_RSA_SD_, symObjAddr: 0xC0B8, symBinAddr: 0x1000102AC, symSize: 0x38 }
  - { offsetInCU: 0x146B8, offset: 0x146B8, size: 0x8, addend: 0x0, symName: __ZNSt3__19allocatorINS_12basic_stringIcNS_11char_traitsIcEENS0_IcEEEEE9constructB7v160006IS5_JS5_EEEvPT_DpOT0_, symObjAddr: 0xC0F0, symBinAddr: 0x1000102E4, symSize: 0x30 }
  - { offsetInCU: 0x14713, offset: 0x14713, size: 0x8, addend: 0x0, symName: __ZNSt3__119__to_address_helperINS_16reverse_iteratorIPNS_12basic_stringIcNS_11char_traitsIcEENS_9allocatorIcEEEEEEvE6__callB7v160006ERKS9_, symObjAddr: 0xC120, symBinAddr: 0x100010314, symSize: 0x38 }
  - { offsetInCU: 0x14736, offset: 0x14736, size: 0x8, addend: 0x0, symName: __ZNKSt3__116reverse_iteratorIPNS_12basic_stringIcNS_11char_traitsIcEENS_9allocatorIcEEEEEptB7v160006Ev, symObjAddr: 0xC158, symBinAddr: 0x10001034C, symSize: 0x24 }
  - { offsetInCU: 0x1475C, offset: 0x1475C, size: 0x8, addend: 0x0, symName: __ZNSt3__128__exception_guard_exceptionsINS_29_AllocatorDestroyRangeReverseINS_9allocatorINS_12basic_stringIcNS_11char_traitsIcEENS2_IcEEEEEENS_16reverse_iteratorIPS7_EEEEED2B7v160006Ev, symObjAddr: 0xC17C, symBinAddr: 0x100010370, symSize: 0x50 }
  - { offsetInCU: 0x14786, offset: 0x14786, size: 0x8, addend: 0x0, symName: __ZNKSt3__129_AllocatorDestroyRangeReverseINS_9allocatorINS_12basic_stringIcNS_11char_traitsIcEENS1_IcEEEEEENS_16reverse_iteratorIPS6_EEEclB7v160006Ev, symObjAddr: 0xC1CC, symBinAddr: 0x1000103C0, symSize: 0xB4 }
  - { offsetInCU: 0x147AD, offset: 0x147AD, size: 0x8, addend: 0x0, symName: __ZNSt3__116reverse_iteratorINS0_IPNS_12basic_stringIcNS_11char_traitsIcEENS_9allocatorIcEEEEEEEC1B7v160006ES8_, symObjAddr: 0xC2F0, symBinAddr: 0x1000104E4, symSize: 0x3C }
  - { offsetInCU: 0x147E5, offset: 0x147E5, size: 0x8, addend: 0x0, symName: __ZNSt3__116reverse_iteratorINS0_IPNS_12basic_stringIcNS_11char_traitsIcEENS_9allocatorIcEEEEEEEppB7v160006Ev, symObjAddr: 0xC3B0, symBinAddr: 0x1000105A4, symSize: 0x30 }
  - { offsetInCU: 0x1480B, offset: 0x1480B, size: 0x8, addend: 0x0, symName: __ZNKSt3__116reverse_iteratorINS0_IPNS_12basic_stringIcNS_11char_traitsIcEENS_9allocatorIcEEEEEEE4baseB7v160006Ev, symObjAddr: 0xC3E0, symBinAddr: 0x1000105D4, symSize: 0x24 }
  - { offsetInCU: 0x14836, offset: 0x14836, size: 0x8, addend: 0x0, symName: __ZNSt3__119__to_address_helperINS_16reverse_iteratorINS1_IPNS_12basic_stringIcNS_11char_traitsIcEENS_9allocatorIcEEEEEEEEvE6__callB7v160006ERKSA_, symObjAddr: 0xC404, symBinAddr: 0x1000105F8, symSize: 0x38 }
  - { offsetInCU: 0x14859, offset: 0x14859, size: 0x8, addend: 0x0, symName: __ZNKSt3__116reverse_iteratorINS0_IPNS_12basic_stringIcNS_11char_traitsIcEENS_9allocatorIcEEEEEEEptB7v160006Ev, symObjAddr: 0xC43C, symBinAddr: 0x100010630, symSize: 0x24 }
  - { offsetInCU: 0x1487F, offset: 0x1487F, size: 0x8, addend: 0x0, symName: __ZNKSt3__116reverse_iteratorINS0_IPNS_12basic_stringIcNS_11char_traitsIcEENS_9allocatorIcEEEEEEEdeB7v160006Ev, symObjAddr: 0xC460, symBinAddr: 0x100010654, symSize: 0x34 }
  - { offsetInCU: 0x148B3, offset: 0x148B3, size: 0x8, addend: 0x0, symName: __ZNSt3__116reverse_iteratorIPNS_12basic_stringIcNS_11char_traitsIcEENS_9allocatorIcEEEEEmmB7v160006Ev, symObjAddr: 0xC494, symBinAddr: 0x100010688, symSize: 0x20 }
  - { offsetInCU: 0x148D9, offset: 0x148D9, size: 0x8, addend: 0x0, symName: __ZNSt3__116reverse_iteratorINS0_IPNS_12basic_stringIcNS_11char_traitsIcEENS_9allocatorIcEEEEEEEC2B7v160006ES8_, symObjAddr: 0xC4B4, symBinAddr: 0x1000106A8, symSize: 0x2C }
  - { offsetInCU: 0x14911, offset: 0x14911, size: 0x8, addend: 0x0, symName: __ZNSt3__116reverse_iteratorIPNS_12basic_stringIcNS_11char_traitsIcEENS_9allocatorIcEEEEEC2B7v160006ES7_, symObjAddr: 0xC4E0, symBinAddr: 0x1000106D4, symSize: 0x28 }
  - { offsetInCU: 0x14949, offset: 0x14949, size: 0x8, addend: 0x0, symName: __ZNSt3__114__split_bufferINS_12basic_stringIcNS_11char_traitsIcEENS_9allocatorIcEEEERNS4_IS6_EEED2Ev, symObjAddr: 0xC508, symBinAddr: 0x1000106FC, symSize: 0x8C }
  - { offsetInCU: 0x14975, offset: 0x14975, size: 0x8, addend: 0x0, symName: __ZNSt3__114__split_bufferINS_12basic_stringIcNS_11char_traitsIcEENS_9allocatorIcEEEERNS4_IS6_EEE5clearB7v160006Ev, symObjAddr: 0xC594, symBinAddr: 0x100010788, symSize: 0x28 }
  - { offsetInCU: 0x1499B, offset: 0x1499B, size: 0x8, addend: 0x0, symName: __ZNKSt3__114__split_bufferINS_12basic_stringIcNS_11char_traitsIcEENS_9allocatorIcEEEERNS4_IS6_EEE8capacityB7v160006Ev, symObjAddr: 0xC5BC, symBinAddr: 0x1000107B0, symSize: 0x40 }
  - { offsetInCU: 0x149C1, offset: 0x149C1, size: 0x8, addend: 0x0, symName: __ZNSt3__114__split_bufferINS_12basic_stringIcNS_11char_traitsIcEENS_9allocatorIcEEEERNS4_IS6_EEE17__destruct_at_endB7v160006EPS6_, symObjAddr: 0xC5FC, symBinAddr: 0x1000107F0, symSize: 0x2C }
  - { offsetInCU: 0x149F5, offset: 0x149F5, size: 0x8, addend: 0x0, symName: __ZNSt3__114__split_bufferINS_12basic_stringIcNS_11char_traitsIcEENS_9allocatorIcEEEERNS4_IS6_EEE17__destruct_at_endB7v160006EPS6_NS_17integral_constantIbLb0EEE, symObjAddr: 0xC628, symBinAddr: 0x10001081C, symSize: 0x80 }
  - { offsetInCU: 0x14A35, offset: 0x14A35, size: 0x8, addend: 0x0, symName: __ZNKSt3__114__split_bufferINS_12basic_stringIcNS_11char_traitsIcEENS_9allocatorIcEEEERNS4_IS6_EEE9__end_capB7v160006Ev, symObjAddr: 0xC6A8, symBinAddr: 0x10001089C, symSize: 0x28 }
  - { offsetInCU: 0x14A5B, offset: 0x14A5B, size: 0x8, addend: 0x0, symName: __ZNKSt3__117__compressed_pairIPNS_12basic_stringIcNS_11char_traitsIcEENS_9allocatorIcEEEERNS4_IS6_EEE5firstB7v160006Ev, symObjAddr: 0xC6D0, symBinAddr: 0x1000108C4, symSize: 0x24 }
  - { offsetInCU: 0x14A81, offset: 0x14A81, size: 0x8, addend: 0x0, symName: __ZNSt3__15dequeI5TokenNS_9allocatorIS1_EEEC2ERKS4_, symObjAddr: 0xC6F4, symBinAddr: 0x1000108E8, symSize: 0xEC }
  - { offsetInCU: 0x14ABC, offset: 0x14ABC, size: 0x8, addend: 0x0, symName: __ZNSt3__116allocator_traitsINS_9allocatorI5TokenEEE37select_on_container_copy_constructionB7v160006IS3_vvEES3_RKS3_, symObjAddr: 0xC7E0, symBinAddr: 0x1000109D4, symSize: 0x10 }
  - { offsetInCU: 0x14AEB, offset: 0x14AEB, size: 0x8, addend: 0x0, symName: __ZNKSt3__15dequeI5TokenNS_9allocatorIS1_EEE7__allocB7v160006Ev, symObjAddr: 0xC7F0, symBinAddr: 0x1000109E4, symSize: 0x28 }
  - { offsetInCU: 0x14B11, offset: 0x14B11, size: 0x8, addend: 0x0, symName: __ZNSt3__19allocatorIP5TokenEC1B7v160006IS1_EERKNS0_IT_EE, symObjAddr: 0xC818, symBinAddr: 0x100010A0C, symSize: 0x34 }
  - { offsetInCU: 0x14B4E, offset: 0x14B4E, size: 0x8, addend: 0x0, symName: __ZNSt3__114__split_bufferIP5TokenNS_9allocatorIS2_EEEC1ERKS4_, symObjAddr: 0xC84C, symBinAddr: 0x100010A40, symSize: 0x34 }
  - { offsetInCU: 0x14B88, offset: 0x14B88, size: 0x8, addend: 0x0, symName: __ZNSt3__117__compressed_pairImNS_9allocatorI5TokenEEEC1B7v160006IiRNS1_IPS2_EEEEOT_OT0_, symObjAddr: 0xC880, symBinAddr: 0x100010A74, symSize: 0x3C }
  - { offsetInCU: 0x14BE5, offset: 0x14BE5, size: 0x8, addend: 0x0, symName: __ZNSt3__15dequeI5TokenNS_9allocatorIS1_EEE8__appendINS_16__deque_iteratorIS1_PKS1_RS7_PKS8_lLl85EEEEEvT_SD_PNS_9enable_ifIXsr27__is_cpp17_forward_iteratorISD_EE5valueEvE4typeE, symObjAddr: 0xC8BC, symBinAddr: 0x100010AB0, symSize: 0x248 }
  - { offsetInCU: 0x14CD5, offset: 0x14CD5, size: 0x8, addend: 0x0, symName: __ZNKSt3__117__compressed_pairImNS_9allocatorI5TokenEEE6secondB7v160006Ev, symObjAddr: 0xCB04, symBinAddr: 0x100010CF8, symSize: 0x24 }
  - { offsetInCU: 0x14CFB, offset: 0x14CFB, size: 0x8, addend: 0x0, symName: __ZNKSt3__122__compressed_pair_elemINS_9allocatorI5TokenEELi1ELb1EE5__getB7v160006Ev, symObjAddr: 0xCB28, symBinAddr: 0x100010D1C, symSize: 0x14 }
  - { offsetInCU: 0x14D21, offset: 0x14D21, size: 0x8, addend: 0x0, symName: __ZNSt3__19allocatorIP5TokenEC2B7v160006IS1_EERKNS0_IT_EE, symObjAddr: 0xCB3C, symBinAddr: 0x100010D30, symSize: 0x30 }
  - { offsetInCU: 0x14D5E, offset: 0x14D5E, size: 0x8, addend: 0x0, symName: __ZNSt3__114__split_bufferIP5TokenNS_9allocatorIS2_EEEC2ERKS4_, symObjAddr: 0xCB6C, symBinAddr: 0x100010D60, symSize: 0x4C }
  - { offsetInCU: 0x14D98, offset: 0x14D98, size: 0x8, addend: 0x0, symName: __ZNSt3__117__compressed_pairIPP5TokenNS_9allocatorIS2_EEEC1B7v160006IDnRKS5_EEOT_OT0_, symObjAddr: 0xCBB8, symBinAddr: 0x100010DAC, symSize: 0x3C }
  - { offsetInCU: 0x14DF0, offset: 0x14DF0, size: 0x8, addend: 0x0, symName: __ZNSt3__117__compressed_pairIPP5TokenNS_9allocatorIS2_EEEC2B7v160006IDnRKS5_EEOT_OT0_, symObjAddr: 0xCBF4, symBinAddr: 0x100010DE8, symSize: 0x44 }
  - { offsetInCU: 0x14E48, offset: 0x14E48, size: 0x8, addend: 0x0, symName: __ZNSt3__122__compressed_pair_elemINS_9allocatorIP5TokenEELi1ELb1EEC2B7v160006IRKS4_vEEOT_, symObjAddr: 0xCC38, symBinAddr: 0x100010E2C, symSize: 0x18 }
  - { offsetInCU: 0x14E8A, offset: 0x14E8A, size: 0x8, addend: 0x0, symName: __ZNSt3__117__compressed_pairImNS_9allocatorI5TokenEEEC2B7v160006IiRNS1_IPS2_EEEEOT_OT0_, symObjAddr: 0xCC50, symBinAddr: 0x100010E44, symSize: 0x44 }
  - { offsetInCU: 0x14EE2, offset: 0x14EE2, size: 0x8, addend: 0x0, symName: __ZNSt3__122__compressed_pair_elemINS_9allocatorI5TokenEELi1ELb1EEC2B7v160006IRNS1_IPS2_EEvEEOT_, symObjAddr: 0xCC94, symBinAddr: 0x100010E88, symSize: 0x34 }
  - { offsetInCU: 0x14F24, offset: 0x14F24, size: 0x8, addend: 0x0, symName: __ZNSt3__19allocatorI5TokenEC2B7v160006IPS1_EERKNS0_IT_EE, symObjAddr: 0xCCC8, symBinAddr: 0x100010EBC, symSize: 0x30 }
  - { offsetInCU: 0x14F61, offset: 0x14F61, size: 0x8, addend: 0x0, symName: __ZNSt3__15dequeI5TokenNS_9allocatorIS1_EEE19__add_back_capacityEm, symObjAddr: 0xCD44, symBinAddr: 0x100010F38, symSize: 0x5BC }
  - { offsetInCU: 0x15066, offset: 0x15066, size: 0x8, addend: 0x0, symName: __ZNKSt3__116__deque_iteratorI5TokenPS1_RS1_PS2_lLl85EEplB7v160006El, symObjAddr: 0xD300, symBinAddr: 0x1000114F4, symSize: 0x40 }
  - { offsetInCU: 0x150CD, offset: 0x150CD, size: 0x8, addend: 0x0, symName: __ZNSt3__15dequeI5TokenNS_9allocatorIS1_EEE13__deque_rangeC1B7v160006ENS_16__deque_iteratorIS1_PS1_RS1_PS7_lLl85EEESA_, symObjAddr: 0xD340, symBinAddr: 0x100011534, symSize: 0x4C }
  - { offsetInCU: 0x15115, offset: 0x15115, size: 0x8, addend: 0x0, symName: __ZNKSt3__15dequeI5TokenNS_9allocatorIS1_EEE13__deque_range5beginB7v160006Ev, symObjAddr: 0xD38C, symBinAddr: 0x100011580, symSize: 0x24 }
  - { offsetInCU: 0x1513B, offset: 0x1513B, size: 0x8, addend: 0x0, symName: __ZNKSt3__15dequeI5TokenNS_9allocatorIS1_EEE13__deque_range3endB7v160006Ev, symObjAddr: 0xD3B0, symBinAddr: 0x1000115A4, symSize: 0x50 }
  - { offsetInCU: 0x15161, offset: 0x15161, size: 0x8, addend: 0x0, symName: __ZNKSt3__15dequeI5TokenNS_9allocatorIS1_EEE13__deque_rangedeB7v160006Ev, symObjAddr: 0xD434, symBinAddr: 0x100011628, symSize: 0x7C }
  - { offsetInCU: 0x1519B, offset: 0x1519B, size: 0x8, addend: 0x0, symName: __ZNSt3__15dequeI5TokenNS_9allocatorIS1_EEE21_ConstructTransactionC1B7v160006EPS4_RNS4_19__deque_block_rangeE, symObjAddr: 0xD4B0, symBinAddr: 0x1000116A4, symSize: 0x3C }
  - { offsetInCU: 0x151E3, offset: 0x151E3, size: 0x8, addend: 0x0, symName: __ZNSt3__15dequeI5TokenNS_9allocatorIS1_EEE21_ConstructTransactionD1B7v160006Ev, symObjAddr: 0xD4EC, symBinAddr: 0x1000116E0, symSize: 0x2C }
  - { offsetInCU: 0x1520D, offset: 0x1520D, size: 0x8, addend: 0x0, symName: __ZNSt3__15dequeI5TokenNS_9allocatorIS1_EEE13__deque_rangeppB7v160006Ev, symObjAddr: 0xD518, symBinAddr: 0x10001170C, symSize: 0x64 }
  - { offsetInCU: 0x15233, offset: 0x15233, size: 0x8, addend: 0x0, symName: __ZNSt3__15dequeI5TokenNS_9allocatorIS1_EEE18__recommend_blocksB7v160006Em, symObjAddr: 0xD664, symBinAddr: 0x100011858, symSize: 0x40 }
  - { offsetInCU: 0x15257, offset: 0x15257, size: 0x8, addend: 0x0, symName: __ZNSt3__114__split_bufferIP5TokenRNS_9allocatorIS2_EEE5beginB7v160006Ev, symObjAddr: 0xD6A4, symBinAddr: 0x100011898, symSize: 0x18 }
  - { offsetInCU: 0x1527D, offset: 0x1527D, size: 0x8, addend: 0x0, symName: __ZNSt3__114__split_bufferIP5TokenRNS_9allocatorIS2_EEE3endB7v160006Ev, symObjAddr: 0xD6BC, symBinAddr: 0x1000118B0, symSize: 0x18 }
  - { offsetInCU: 0x152A3, offset: 0x152A3, size: 0x8, addend: 0x0, symName: __ZNSt3__114__split_bufferIP5TokenRNS_9allocatorIS2_EEE9push_backB7v160006ERKS2_, symObjAddr: 0xD6D4, symBinAddr: 0x1000118C8, symSize: 0x260 }
  - { offsetInCU: 0x1531C, offset: 0x1531C, size: 0x8, addend: 0x0, symName: __ZNSt3__116__deque_iteratorI5TokenPS1_RS1_PS2_lLl85EEpLB7v160006El, symObjAddr: 0xD934, symBinAddr: 0x100011B28, symSize: 0x120 }
  - { offsetInCU: 0x1536F, offset: 0x1536F, size: 0x8, addend: 0x0, symName: __ZNSt3__15dequeI5TokenNS_9allocatorIS1_EEE13__deque_rangeC2B7v160006ENS_16__deque_iteratorIS1_PS1_RS1_PS7_lLl85EEESA_, symObjAddr: 0xDA54, symBinAddr: 0x100011C48, symSize: 0x34 }
  - { offsetInCU: 0x153B7, offset: 0x153B7, size: 0x8, addend: 0x0, symName: __ZNSt3__15dequeI5TokenNS_9allocatorIS1_EEE19__deque_block_rangeC1B7v160006EPS1_S6_, symObjAddr: 0xDAB8, symBinAddr: 0x100011CAC, symSize: 0x3C }
  - { offsetInCU: 0x153FF, offset: 0x153FF, size: 0x8, addend: 0x0, symName: __ZNSt3__15dequeI5TokenNS_9allocatorIS1_EEE19__deque_block_rangeC2B7v160006EPS1_S6_, symObjAddr: 0xDAF4, symBinAddr: 0x100011CE8, symSize: 0x2C }
  - { offsetInCU: 0x15447, offset: 0x15447, size: 0x8, addend: 0x0, symName: __ZNSt3__15dequeI5TokenNS_9allocatorIS1_EEE21_ConstructTransactionC2B7v160006EPS4_RNS4_19__deque_block_rangeE, symObjAddr: 0xDB20, symBinAddr: 0x100011D14, symSize: 0x48 }
  - { offsetInCU: 0x1548F, offset: 0x1548F, size: 0x8, addend: 0x0, symName: __ZNSt3__15dequeI5TokenNS_9allocatorIS1_EEE21_ConstructTransactionD2B7v160006Ev, symObjAddr: 0xDB68, symBinAddr: 0x100011D5C, symSize: 0x5C }
  - { offsetInCU: 0x154B9, offset: 0x154B9, size: 0x8, addend: 0x0, symName: __ZNSt3__112basic_stringIcNS_11char_traitsIcEENS_9allocatorIcEEEC2B7v160006IDnEEPKc, symObjAddr: 0xDBC4, symBinAddr: 0x100011DB8, symSize: 0x60 }
  - { offsetInCU: 0x154F7, offset: 0x154F7, size: 0x8, addend: 0x0, symName: __ZNKSt3__114__split_bufferIP5TokenNS_9allocatorIS2_EEE5beginB7v160006Ev, symObjAddr: 0xDC24, symBinAddr: 0x100011E18, symSize: 0x18 }
  - { offsetInCU: 0x1551D, offset: 0x1551D, size: 0x8, addend: 0x0, symName: __ZNKSt3__15dequeI5TokenNS_9allocatorIS1_EEE6__sizeB7v160006Ev, symObjAddr: 0xDC3C, symBinAddr: 0x100011E30, symSize: 0x28 }
  - { offsetInCU: 0x15543, offset: 0x15543, size: 0x8, addend: 0x0, symName: __ZNKSt3__117__compressed_pairImNS_9allocatorI5TokenEEE5firstB7v160006Ev, symObjAddr: 0xDC64, symBinAddr: 0x100011E58, symSize: 0x24 }
  - { offsetInCU: 0x15569, offset: 0x15569, size: 0x8, addend: 0x0, symName: __ZNKSt3__122__compressed_pair_elemImLi0ELb0EE5__getB7v160006Ev, symObjAddr: 0xDC88, symBinAddr: 0x100011E7C, symSize: 0x14 }
  - { offsetInCU: 0x1558F, offset: 0x1558F, size: 0x8, addend: 0x0, symName: __ZNKSt3__112basic_stringIcNS_11char_traitsIcEENS_9allocatorIcEEE21__make_const_iteratorB7v160006EPKc, symObjAddr: 0xDC9C, symBinAddr: 0x100011E90, symSize: 0x34 }
  - { offsetInCU: 0x155C4, offset: 0x155C4, size: 0x8, addend: 0x0, symName: __ZNSt3__111__wrap_iterIPKcEC1B7v160006EPKvS2_, symObjAddr: 0xDCD0, symBinAddr: 0x100011EC4, symSize: 0x3C }
  - { offsetInCU: 0x1560A, offset: 0x1560A, size: 0x8, addend: 0x0, symName: __ZNSt3__111__wrap_iterIPKcEC2B7v160006EPKvS2_, symObjAddr: 0xDD0C, symBinAddr: 0x100011F00, symSize: 0x24 }
  - { offsetInCU: 0x15650, offset: 0x15650, size: 0x8, addend: 0x0, symName: __ZNSt3__116__deque_iteratorI5TokenPKS1_RS2_PKS3_lLl85EEC1B7v160006ES6_S3_, symObjAddr: 0xDD30, symBinAddr: 0x100011F24, symSize: 0x3C }
  - { offsetInCU: 0x15698, offset: 0x15698, size: 0x8, addend: 0x0, symName: __ZNSt3__116__deque_iteratorI5TokenPKS1_RS2_PKS3_lLl85EEC2B7v160006ES6_S3_, symObjAddr: 0xDD6C, symBinAddr: 0x100011F60, symSize: 0x2C }
  - { offsetInCU: 0x156E0, offset: 0x156E0, size: 0x8, addend: 0x0, symName: __ZNSt3__15stackI5TokenNS_5dequeIS1_NS_9allocatorIS1_EEEEEC2B7v160006Ev, symObjAddr: 0xDDC8, symBinAddr: 0x100011FBC, symSize: 0x2C }
  - { offsetInCU: 0x1570A, offset: 0x1570A, size: 0x8, addend: 0x0, symName: __ZNSt3__15dequeI5TokenNS_9allocatorIS1_EEE4backEv, symObjAddr: 0xDDF4, symBinAddr: 0x100011FE8, symSize: 0x70 }
  - { offsetInCU: 0x15741, offset: 0x15741, size: 0x8, addend: 0x0, symName: __ZNSt3__15dequeI5TokenNS_9allocatorIS1_EEE8pop_backEv, symObjAddr: 0xDE64, symBinAddr: 0x100012058, symSize: 0xC0 }
  - { offsetInCU: 0x15787, offset: 0x15787, size: 0x8, addend: 0x0, symName: __ZNSt3__15dequeI5TokenNS_9allocatorIS1_EEE25__maybe_remove_back_spareB7v160006Eb, symObjAddr: 0xDF24, symBinAddr: 0x100012118, symSize: 0xCC }
  - { offsetInCU: 0x157BC, offset: 0x157BC, size: 0x8, addend: 0x0, symName: __ZNKSt3__15dequeI5TokenNS_9allocatorIS1_EEE19__back_spare_blocksB7v160006Ev, symObjAddr: 0xDFF0, symBinAddr: 0x1000121E4, symSize: 0x2C }
  - { offsetInCU: 0x157E2, offset: 0x157E2, size: 0x8, addend: 0x0, symName: __ZNSt3__114__split_bufferIP5TokenNS_9allocatorIS2_EEE4backB7v160006Ev, symObjAddr: 0xE01C, symBinAddr: 0x100012210, symSize: 0x1C }
  - { offsetInCU: 0x15808, offset: 0x15808, size: 0x8, addend: 0x0, symName: __ZNSt3__114__split_bufferIP5TokenNS_9allocatorIS2_EEE8pop_backB7v160006Ev, symObjAddr: 0xE038, symBinAddr: 0x10001222C, symSize: 0x2C }
  - { offsetInCU: 0x15833, offset: 0x15833, size: 0x8, addend: 0x0, symName: __ZNSt3__116allocator_traitsINS_9allocatorI5TokenEEE9constructB7v160006IS2_JS2_EvEEvRS3_PT_DpOT0_, symObjAddr: 0xE064, symBinAddr: 0x100012258, symSize: 0x34 }
  - { offsetInCU: 0x1588A, offset: 0x1588A, size: 0x8, addend: 0x0, symName: __ZNSt3__19allocatorI5TokenE9constructB7v160006IS1_JS1_EEEvPT_DpOT0_, symObjAddr: 0xE098, symBinAddr: 0x10001228C, symSize: 0x30 }
  - { offsetInCU: 0x158E0, offset: 0x158E0, size: 0x8, addend: 0x0, symName: __ZN5TokenC1EOS_, symObjAddr: 0xE0C8, symBinAddr: 0x1000122BC, symSize: 0x34 }
  - { offsetInCU: 0x15915, offset: 0x15915, size: 0x8, addend: 0x0, symName: __ZN5TokenC2EOS_, symObjAddr: 0xE0FC, symBinAddr: 0x1000122F0, symSize: 0x48 }
...
